
Creating_task.elf:     file format elf32-littlearm

Sections:
Idx Name          Size      VMA       LMA       File off  Algn
  0 .isr_vector   00000194  08000000  08000000  00001000  2**0
                  CONTENTS, ALLOC, LOAD, READONLY, DATA
  1 .text         00004b24  080001a0  080001a0  000011a0  2**4
                  CONTENTS, ALLOC, LOAD, READONLY, CODE
  2 .rodata       0000003c  08004cc4  08004cc4  00005cc4  2**2
                  CONTENTS, ALLOC, LOAD, READONLY, DATA
  3 .ARM.extab    00000000  08004d00  08004d00  00006010  2**0
                  CONTENTS
  4 .ARM          00000008  08004d00  08004d00  00005d00  2**2
                  CONTENTS, ALLOC, LOAD, READONLY, DATA
  5 .preinit_array 00000000  08004d08  08004d08  00006010  2**0
                  CONTENTS, ALLOC, LOAD, DATA
  6 .init_array   00000004  08004d08  08004d08  00005d08  2**2
                  CONTENTS, ALLOC, LOAD, READONLY, DATA
  7 .fini_array   00000004  08004d0c  08004d0c  00005d0c  2**2
                  CONTENTS, ALLOC, LOAD, READONLY, DATA
  8 .data         00000010  20000000  08004d10  00006000  2**2
                  CONTENTS, ALLOC, LOAD, DATA
  9 .bss          00004a00  20000010  08004d20  00006010  2**2
                  ALLOC
 10 ._user_heap_stack 00000600  20004a10  08004d20  00006a10  2**0
                  ALLOC
 11 .ARM.attributes 00000030  00000000  00000000  00006010  2**0
                  CONTENTS, READONLY
 12 .debug_info   00015de0  00000000  00000000  00006040  2**0
                  CONTENTS, READONLY, DEBUGGING, OCTETS
 13 .debug_abbrev 0000308f  00000000  00000000  0001be20  2**0
                  CONTENTS, READONLY, DEBUGGING, OCTETS
 14 .debug_aranges 00001398  00000000  00000000  0001eeb0  2**3
                  CONTENTS, READONLY, DEBUGGING, OCTETS
 15 .debug_rnglists 00000f43  00000000  00000000  00020248  2**0
                  CONTENTS, READONLY, DEBUGGING, OCTETS
 16 .debug_macro  00003a3e  00000000  00000000  0002118b  2**0
                  CONTENTS, READONLY, DEBUGGING, OCTETS
 17 .debug_line   00016708  00000000  00000000  00024bc9  2**0
                  CONTENTS, READONLY, DEBUGGING, OCTETS
 18 .debug_str    000979c9  00000000  00000000  0003b2d1  2**0
                  CONTENTS, READONLY, DEBUGGING, OCTETS
 19 .comment      00000043  00000000  00000000  000d2c9a  2**0
                  CONTENTS, READONLY
 20 .debug_frame  000052e8  00000000  00000000  000d2ce0  2**2
                  CONTENTS, READONLY, DEBUGGING, OCTETS
 21 .debug_line_str 00000059  00000000  00000000  000d7fc8  2**0
                  CONTENTS, READONLY, DEBUGGING, OCTETS

Disassembly of section .text:

080001a0 <__do_global_dtors_aux>:
 80001a0:	b510      	push	{r4, lr}
 80001a2:	4c05      	ldr	r4, [pc, #20]	@ (80001b8 <__do_global_dtors_aux+0x18>)
 80001a4:	7823      	ldrb	r3, [r4, #0]
 80001a6:	b933      	cbnz	r3, 80001b6 <__do_global_dtors_aux+0x16>
 80001a8:	4b04      	ldr	r3, [pc, #16]	@ (80001bc <__do_global_dtors_aux+0x1c>)
 80001aa:	b113      	cbz	r3, 80001b2 <__do_global_dtors_aux+0x12>
 80001ac:	4804      	ldr	r0, [pc, #16]	@ (80001c0 <__do_global_dtors_aux+0x20>)
 80001ae:	f3af 8000 	nop.w
 80001b2:	2301      	movs	r3, #1
 80001b4:	7023      	strb	r3, [r4, #0]
 80001b6:	bd10      	pop	{r4, pc}
 80001b8:	20000010 	.word	0x20000010
 80001bc:	00000000 	.word	0x00000000
 80001c0:	08004cac 	.word	0x08004cac

080001c4 <frame_dummy>:
 80001c4:	b508      	push	{r3, lr}
 80001c6:	4b03      	ldr	r3, [pc, #12]	@ (80001d4 <frame_dummy+0x10>)
 80001c8:	b11b      	cbz	r3, 80001d2 <frame_dummy+0xe>
 80001ca:	4903      	ldr	r1, [pc, #12]	@ (80001d8 <frame_dummy+0x14>)
 80001cc:	4803      	ldr	r0, [pc, #12]	@ (80001dc <frame_dummy+0x18>)
 80001ce:	f3af 8000 	nop.w
 80001d2:	bd08      	pop	{r3, pc}
 80001d4:	00000000 	.word	0x00000000
 80001d8:	20000014 	.word	0x20000014
 80001dc:	08004cac 	.word	0x08004cac

080001e0 <__aeabi_uldivmod>:
 80001e0:	b953      	cbnz	r3, 80001f8 <__aeabi_uldivmod+0x18>
 80001e2:	b94a      	cbnz	r2, 80001f8 <__aeabi_uldivmod+0x18>
 80001e4:	2900      	cmp	r1, #0
 80001e6:	bf08      	it	eq
 80001e8:	2800      	cmpeq	r0, #0
 80001ea:	bf1c      	itt	ne
 80001ec:	f04f 31ff 	movne.w	r1, #4294967295
 80001f0:	f04f 30ff 	movne.w	r0, #4294967295
 80001f4:	f000 b96a 	b.w	80004cc <__aeabi_idiv0>
 80001f8:	f1ad 0c08 	sub.w	ip, sp, #8
 80001fc:	e96d ce04 	strd	ip, lr, [sp, #-16]!
 8000200:	f000 f806 	bl	8000210 <__udivmoddi4>
 8000204:	f8dd e004 	ldr.w	lr, [sp, #4]
 8000208:	e9dd 2302 	ldrd	r2, r3, [sp, #8]
 800020c:	b004      	add	sp, #16
 800020e:	4770      	bx	lr

08000210 <__udivmoddi4>:
 8000210:	e92d 47f0 	stmdb	sp!, {r4, r5, r6, r7, r8, r9, sl, lr}
 8000214:	9d08      	ldr	r5, [sp, #32]
 8000216:	460c      	mov	r4, r1
 8000218:	2b00      	cmp	r3, #0
 800021a:	d14e      	bne.n	80002ba <__udivmoddi4+0xaa>
 800021c:	4694      	mov	ip, r2
 800021e:	458c      	cmp	ip, r1
 8000220:	4686      	mov	lr, r0
 8000222:	fab2 f282 	clz	r2, r2
 8000226:	d962      	bls.n	80002ee <__udivmoddi4+0xde>
 8000228:	b14a      	cbz	r2, 800023e <__udivmoddi4+0x2e>
 800022a:	f1c2 0320 	rsb	r3, r2, #32
 800022e:	4091      	lsls	r1, r2
 8000230:	fa20 f303 	lsr.w	r3, r0, r3
 8000234:	fa0c fc02 	lsl.w	ip, ip, r2
 8000238:	4319      	orrs	r1, r3
 800023a:	fa00 fe02 	lsl.w	lr, r0, r2
 800023e:	ea4f 471c 	mov.w	r7, ip, lsr #16
 8000242:	fa1f f68c 	uxth.w	r6, ip
 8000246:	fbb1 f4f7 	udiv	r4, r1, r7
 800024a:	ea4f 431e 	mov.w	r3, lr, lsr #16
 800024e:	fb07 1114 	mls	r1, r7, r4, r1
 8000252:	ea43 4301 	orr.w	r3, r3, r1, lsl #16
 8000256:	fb04 f106 	mul.w	r1, r4, r6
 800025a:	4299      	cmp	r1, r3
 800025c:	d90a      	bls.n	8000274 <__udivmoddi4+0x64>
 800025e:	eb1c 0303 	adds.w	r3, ip, r3
 8000262:	f104 30ff 	add.w	r0, r4, #4294967295
 8000266:	f080 8112 	bcs.w	800048e <__udivmoddi4+0x27e>
 800026a:	4299      	cmp	r1, r3
 800026c:	f240 810f 	bls.w	800048e <__udivmoddi4+0x27e>
 8000270:	3c02      	subs	r4, #2
 8000272:	4463      	add	r3, ip
 8000274:	1a59      	subs	r1, r3, r1
 8000276:	fa1f f38e 	uxth.w	r3, lr
 800027a:	fbb1 f0f7 	udiv	r0, r1, r7
 800027e:	fb07 1110 	mls	r1, r7, r0, r1
 8000282:	ea43 4301 	orr.w	r3, r3, r1, lsl #16
 8000286:	fb00 f606 	mul.w	r6, r0, r6
 800028a:	429e      	cmp	r6, r3
 800028c:	d90a      	bls.n	80002a4 <__udivmoddi4+0x94>
 800028e:	eb1c 0303 	adds.w	r3, ip, r3
 8000292:	f100 31ff 	add.w	r1, r0, #4294967295
 8000296:	f080 80fc 	bcs.w	8000492 <__udivmoddi4+0x282>
 800029a:	429e      	cmp	r6, r3
 800029c:	f240 80f9 	bls.w	8000492 <__udivmoddi4+0x282>
 80002a0:	4463      	add	r3, ip
 80002a2:	3802      	subs	r0, #2
 80002a4:	1b9b      	subs	r3, r3, r6
 80002a6:	ea40 4004 	orr.w	r0, r0, r4, lsl #16
 80002aa:	2100      	movs	r1, #0
 80002ac:	b11d      	cbz	r5, 80002b6 <__udivmoddi4+0xa6>
 80002ae:	40d3      	lsrs	r3, r2
 80002b0:	2200      	movs	r2, #0
 80002b2:	e9c5 3200 	strd	r3, r2, [r5]
 80002b6:	e8bd 87f0 	ldmia.w	sp!, {r4, r5, r6, r7, r8, r9, sl, pc}
 80002ba:	428b      	cmp	r3, r1
 80002bc:	d905      	bls.n	80002ca <__udivmoddi4+0xba>
 80002be:	b10d      	cbz	r5, 80002c4 <__udivmoddi4+0xb4>
 80002c0:	e9c5 0100 	strd	r0, r1, [r5]
 80002c4:	2100      	movs	r1, #0
 80002c6:	4608      	mov	r0, r1
 80002c8:	e7f5      	b.n	80002b6 <__udivmoddi4+0xa6>
 80002ca:	fab3 f183 	clz	r1, r3
 80002ce:	2900      	cmp	r1, #0
 80002d0:	d146      	bne.n	8000360 <__udivmoddi4+0x150>
 80002d2:	42a3      	cmp	r3, r4
 80002d4:	d302      	bcc.n	80002dc <__udivmoddi4+0xcc>
 80002d6:	4290      	cmp	r0, r2
 80002d8:	f0c0 80f0 	bcc.w	80004bc <__udivmoddi4+0x2ac>
 80002dc:	1a86      	subs	r6, r0, r2
 80002de:	eb64 0303 	sbc.w	r3, r4, r3
 80002e2:	2001      	movs	r0, #1
 80002e4:	2d00      	cmp	r5, #0
 80002e6:	d0e6      	beq.n	80002b6 <__udivmoddi4+0xa6>
 80002e8:	e9c5 6300 	strd	r6, r3, [r5]
 80002ec:	e7e3      	b.n	80002b6 <__udivmoddi4+0xa6>
 80002ee:	2a00      	cmp	r2, #0
 80002f0:	f040 8090 	bne.w	8000414 <__udivmoddi4+0x204>
 80002f4:	eba1 040c 	sub.w	r4, r1, ip
 80002f8:	ea4f 481c 	mov.w	r8, ip, lsr #16
 80002fc:	fa1f f78c 	uxth.w	r7, ip
 8000300:	2101      	movs	r1, #1
 8000302:	fbb4 f6f8 	udiv	r6, r4, r8
 8000306:	ea4f 431e 	mov.w	r3, lr, lsr #16
 800030a:	fb08 4416 	mls	r4, r8, r6, r4
 800030e:	ea43 4304 	orr.w	r3, r3, r4, lsl #16
 8000312:	fb07 f006 	mul.w	r0, r7, r6
 8000316:	4298      	cmp	r0, r3
 8000318:	d908      	bls.n	800032c <__udivmoddi4+0x11c>
 800031a:	eb1c 0303 	adds.w	r3, ip, r3
 800031e:	f106 34ff 	add.w	r4, r6, #4294967295
 8000322:	d202      	bcs.n	800032a <__udivmoddi4+0x11a>
 8000324:	4298      	cmp	r0, r3
 8000326:	f200 80cd 	bhi.w	80004c4 <__udivmoddi4+0x2b4>
 800032a:	4626      	mov	r6, r4
 800032c:	1a1c      	subs	r4, r3, r0
 800032e:	fa1f f38e 	uxth.w	r3, lr
 8000332:	fbb4 f0f8 	udiv	r0, r4, r8
 8000336:	fb08 4410 	mls	r4, r8, r0, r4
 800033a:	ea43 4304 	orr.w	r3, r3, r4, lsl #16
 800033e:	fb00 f707 	mul.w	r7, r0, r7
 8000342:	429f      	cmp	r7, r3
 8000344:	d908      	bls.n	8000358 <__udivmoddi4+0x148>
 8000346:	eb1c 0303 	adds.w	r3, ip, r3
 800034a:	f100 34ff 	add.w	r4, r0, #4294967295
 800034e:	d202      	bcs.n	8000356 <__udivmoddi4+0x146>
 8000350:	429f      	cmp	r7, r3
 8000352:	f200 80b0 	bhi.w	80004b6 <__udivmoddi4+0x2a6>
 8000356:	4620      	mov	r0, r4
 8000358:	1bdb      	subs	r3, r3, r7
 800035a:	ea40 4006 	orr.w	r0, r0, r6, lsl #16
 800035e:	e7a5      	b.n	80002ac <__udivmoddi4+0x9c>
 8000360:	f1c1 0620 	rsb	r6, r1, #32
 8000364:	408b      	lsls	r3, r1
 8000366:	fa22 f706 	lsr.w	r7, r2, r6
 800036a:	431f      	orrs	r7, r3
 800036c:	fa20 fc06 	lsr.w	ip, r0, r6
 8000370:	fa04 f301 	lsl.w	r3, r4, r1
 8000374:	ea43 030c 	orr.w	r3, r3, ip
 8000378:	40f4      	lsrs	r4, r6
 800037a:	fa00 f801 	lsl.w	r8, r0, r1
 800037e:	0c38      	lsrs	r0, r7, #16
 8000380:	ea4f 4913 	mov.w	r9, r3, lsr #16
 8000384:	fbb4 fef0 	udiv	lr, r4, r0
 8000388:	fa1f fc87 	uxth.w	ip, r7
 800038c:	fb00 441e 	mls	r4, r0, lr, r4
 8000390:	ea49 4404 	orr.w	r4, r9, r4, lsl #16
 8000394:	fb0e f90c 	mul.w	r9, lr, ip
 8000398:	45a1      	cmp	r9, r4
 800039a:	fa02 f201 	lsl.w	r2, r2, r1
 800039e:	d90a      	bls.n	80003b6 <__udivmoddi4+0x1a6>
 80003a0:	193c      	adds	r4, r7, r4
 80003a2:	f10e 3aff 	add.w	sl, lr, #4294967295
 80003a6:	f080 8084 	bcs.w	80004b2 <__udivmoddi4+0x2a2>
 80003aa:	45a1      	cmp	r9, r4
 80003ac:	f240 8081 	bls.w	80004b2 <__udivmoddi4+0x2a2>
 80003b0:	f1ae 0e02 	sub.w	lr, lr, #2
 80003b4:	443c      	add	r4, r7
 80003b6:	eba4 0409 	sub.w	r4, r4, r9
 80003ba:	fa1f f983 	uxth.w	r9, r3
 80003be:	fbb4 f3f0 	udiv	r3, r4, r0
 80003c2:	fb00 4413 	mls	r4, r0, r3, r4
 80003c6:	ea49 4404 	orr.w	r4, r9, r4, lsl #16
 80003ca:	fb03 fc0c 	mul.w	ip, r3, ip
 80003ce:	45a4      	cmp	ip, r4
 80003d0:	d907      	bls.n	80003e2 <__udivmoddi4+0x1d2>
 80003d2:	193c      	adds	r4, r7, r4
 80003d4:	f103 30ff 	add.w	r0, r3, #4294967295
 80003d8:	d267      	bcs.n	80004aa <__udivmoddi4+0x29a>
 80003da:	45a4      	cmp	ip, r4
 80003dc:	d965      	bls.n	80004aa <__udivmoddi4+0x29a>
 80003de:	3b02      	subs	r3, #2
 80003e0:	443c      	add	r4, r7
 80003e2:	ea43 400e 	orr.w	r0, r3, lr, lsl #16
 80003e6:	fba0 9302 	umull	r9, r3, r0, r2
 80003ea:	eba4 040c 	sub.w	r4, r4, ip
 80003ee:	429c      	cmp	r4, r3
 80003f0:	46ce      	mov	lr, r9
 80003f2:	469c      	mov	ip, r3
 80003f4:	d351      	bcc.n	800049a <__udivmoddi4+0x28a>
 80003f6:	d04e      	beq.n	8000496 <__udivmoddi4+0x286>
 80003f8:	b155      	cbz	r5, 8000410 <__udivmoddi4+0x200>
 80003fa:	ebb8 030e 	subs.w	r3, r8, lr
 80003fe:	eb64 040c 	sbc.w	r4, r4, ip
 8000402:	fa04 f606 	lsl.w	r6, r4, r6
 8000406:	40cb      	lsrs	r3, r1
 8000408:	431e      	orrs	r6, r3
 800040a:	40cc      	lsrs	r4, r1
 800040c:	e9c5 6400 	strd	r6, r4, [r5]
 8000410:	2100      	movs	r1, #0
 8000412:	e750      	b.n	80002b6 <__udivmoddi4+0xa6>
 8000414:	f1c2 0320 	rsb	r3, r2, #32
 8000418:	fa20 f103 	lsr.w	r1, r0, r3
 800041c:	fa0c fc02 	lsl.w	ip, ip, r2
 8000420:	fa24 f303 	lsr.w	r3, r4, r3
 8000424:	4094      	lsls	r4, r2
 8000426:	430c      	orrs	r4, r1
 8000428:	ea4f 481c 	mov.w	r8, ip, lsr #16
 800042c:	fa00 fe02 	lsl.w	lr, r0, r2
 8000430:	fa1f f78c 	uxth.w	r7, ip
 8000434:	fbb3 f0f8 	udiv	r0, r3, r8
 8000438:	fb08 3110 	mls	r1, r8, r0, r3
 800043c:	0c23      	lsrs	r3, r4, #16
 800043e:	ea43 4301 	orr.w	r3, r3, r1, lsl #16
 8000442:	fb00 f107 	mul.w	r1, r0, r7
 8000446:	4299      	cmp	r1, r3
 8000448:	d908      	bls.n	800045c <__udivmoddi4+0x24c>
 800044a:	eb1c 0303 	adds.w	r3, ip, r3
 800044e:	f100 36ff 	add.w	r6, r0, #4294967295
 8000452:	d22c      	bcs.n	80004ae <__udivmoddi4+0x29e>
 8000454:	4299      	cmp	r1, r3
 8000456:	d92a      	bls.n	80004ae <__udivmoddi4+0x29e>
 8000458:	3802      	subs	r0, #2
 800045a:	4463      	add	r3, ip
 800045c:	1a5b      	subs	r3, r3, r1
 800045e:	b2a4      	uxth	r4, r4
 8000460:	fbb3 f1f8 	udiv	r1, r3, r8
 8000464:	fb08 3311 	mls	r3, r8, r1, r3
 8000468:	ea44 4403 	orr.w	r4, r4, r3, lsl #16
 800046c:	fb01 f307 	mul.w	r3, r1, r7
 8000470:	42a3      	cmp	r3, r4
 8000472:	d908      	bls.n	8000486 <__udivmoddi4+0x276>
 8000474:	eb1c 0404 	adds.w	r4, ip, r4
 8000478:	f101 36ff 	add.w	r6, r1, #4294967295
 800047c:	d213      	bcs.n	80004a6 <__udivmoddi4+0x296>
 800047e:	42a3      	cmp	r3, r4
 8000480:	d911      	bls.n	80004a6 <__udivmoddi4+0x296>
 8000482:	3902      	subs	r1, #2
 8000484:	4464      	add	r4, ip
 8000486:	1ae4      	subs	r4, r4, r3
 8000488:	ea41 4100 	orr.w	r1, r1, r0, lsl #16
 800048c:	e739      	b.n	8000302 <__udivmoddi4+0xf2>
 800048e:	4604      	mov	r4, r0
 8000490:	e6f0      	b.n	8000274 <__udivmoddi4+0x64>
 8000492:	4608      	mov	r0, r1
 8000494:	e706      	b.n	80002a4 <__udivmoddi4+0x94>
 8000496:	45c8      	cmp	r8, r9
 8000498:	d2ae      	bcs.n	80003f8 <__udivmoddi4+0x1e8>
 800049a:	ebb9 0e02 	subs.w	lr, r9, r2
 800049e:	eb63 0c07 	sbc.w	ip, r3, r7
 80004a2:	3801      	subs	r0, #1
 80004a4:	e7a8      	b.n	80003f8 <__udivmoddi4+0x1e8>
 80004a6:	4631      	mov	r1, r6
 80004a8:	e7ed      	b.n	8000486 <__udivmoddi4+0x276>
 80004aa:	4603      	mov	r3, r0
 80004ac:	e799      	b.n	80003e2 <__udivmoddi4+0x1d2>
 80004ae:	4630      	mov	r0, r6
 80004b0:	e7d4      	b.n	800045c <__udivmoddi4+0x24c>
 80004b2:	46d6      	mov	lr, sl
 80004b4:	e77f      	b.n	80003b6 <__udivmoddi4+0x1a6>
 80004b6:	4463      	add	r3, ip
 80004b8:	3802      	subs	r0, #2
 80004ba:	e74d      	b.n	8000358 <__udivmoddi4+0x148>
 80004bc:	4606      	mov	r6, r0
 80004be:	4623      	mov	r3, r4
 80004c0:	4608      	mov	r0, r1
 80004c2:	e70f      	b.n	80002e4 <__udivmoddi4+0xd4>
 80004c4:	3e02      	subs	r6, #2
 80004c6:	4463      	add	r3, ip
 80004c8:	e730      	b.n	800032c <__udivmoddi4+0x11c>
 80004ca:	bf00      	nop

080004cc <__aeabi_idiv0>:
 80004cc:	4770      	bx	lr
 80004ce:	bf00      	nop

080004d0 <main>:
 80004d0:	b580      	push	{r7, lr}
 80004d2:	b082      	sub	sp, #8
 80004d4:	af02      	add	r7, sp, #8
 80004d6:	f000 fa89 	bl	80009ec <HAL_Init>
 80004da:	f000 f823 	bl	8000524 <SystemClock_Config>
 80004de:	f000 f8b7 	bl	8000650 <MX_GPIO_Init>
 80004e2:	f000 f88b 	bl	80005fc <MX_USART2_UART_Init>
 80004e6:	2300      	movs	r3, #0
 80004e8:	9301      	str	r3, [sp, #4]
 80004ea:	2301      	movs	r3, #1
 80004ec:	9300      	str	r3, [sp, #0]
 80004ee:	2300      	movs	r3, #0
 80004f0:	2264      	movs	r2, #100	@ 0x64
 80004f2:	4904      	ldr	r1, [pc, #16]	@ (8000504 <main+0x34>)
 80004f4:	4804      	ldr	r0, [pc, #16]	@ (8000508 <main+0x38>)
 80004f6:	f002 fd8f 	bl	8003018 <xTaskCreate>
 80004fa:	f002 fed3 	bl	80032a4 <vTaskStartScheduler>
 80004fe:	bf00      	nop
 8000500:	e7fd      	b.n	80004fe <main+0x2e>
 8000502:	bf00      	nop
 8000504:	08004cc4 	.word	0x08004cc4
 8000508:	0800050d 	.word	0x0800050d

0800050c <vSensorControllerTask>:
 800050c:	b480      	push	{r7}
 800050e:	b083      	sub	sp, #12
 8000510:	af00      	add	r7, sp, #0
 8000512:	6078      	str	r0, [r7, #4]
 8000514:	4b02      	ldr	r3, [pc, #8]	@ (8000520 <vSensorControllerTask+0x14>)
 8000516:	681b      	ldr	r3, [r3, #0]
 8000518:	3301      	adds	r3, #1
 800051a:	4a01      	ldr	r2, [pc, #4]	@ (8000520 <vSensorControllerTask+0x14>)
 800051c:	6013      	str	r3, [r2, #0]
 800051e:	e7f9      	b.n	8000514 <vSensorControllerTask+0x8>
 8000520:	20000074 	.word	0x20000074

08000524 <SystemClock_Config>:
 8000524:	b580      	push	{r7, lr}
 8000526:	b094      	sub	sp, #80	@ 0x50
 8000528:	af00      	add	r7, sp, #0
 800052a:	f107 0320 	add.w	r3, r7, #32
 800052e:	2230      	movs	r2, #48	@ 0x30
 8000530:	2100      	movs	r1, #0
 8000532:	4618      	mov	r0, r3
 8000534:	f004 fb80 	bl	8004c38 <memset>
 8000538:	f107 030c 	add.w	r3, r7, #12
 800053c:	2200      	movs	r2, #0
 800053e:	601a      	str	r2, [r3, #0]
 8000540:	605a      	str	r2, [r3, #4]
 8000542:	609a      	str	r2, [r3, #8]
 8000544:	60da      	str	r2, [r3, #12]
 8000546:	611a      	str	r2, [r3, #16]
 8000548:	2300      	movs	r3, #0
 800054a:	60bb      	str	r3, [r7, #8]
 800054c:	4b29      	ldr	r3, [pc, #164]	@ (80005f4 <SystemClock_Config+0xd0>)
 800054e:	6c1b      	ldr	r3, [r3, #64]	@ 0x40
 8000550:	4a28      	ldr	r2, [pc, #160]	@ (80005f4 <SystemClock_Config+0xd0>)
 8000552:	f043 5380 	orr.w	r3, r3, #268435456	@ 0x10000000
 8000556:	6413      	str	r3, [r2, #64]	@ 0x40
 8000558:	4b26      	ldr	r3, [pc, #152]	@ (80005f4 <SystemClock_Config+0xd0>)
 800055a:	6c1b      	ldr	r3, [r3, #64]	@ 0x40
 800055c:	f003 5380 	and.w	r3, r3, #268435456	@ 0x10000000
 8000560:	60bb      	str	r3, [r7, #8]
 8000562:	68bb      	ldr	r3, [r7, #8]
 8000564:	2300      	movs	r3, #0
 8000566:	607b      	str	r3, [r7, #4]
 8000568:	4b23      	ldr	r3, [pc, #140]	@ (80005f8 <SystemClock_Config+0xd4>)
 800056a:	681b      	ldr	r3, [r3, #0]
 800056c:	f423 4340 	bic.w	r3, r3, #49152	@ 0xc000
 8000570:	4a21      	ldr	r2, [pc, #132]	@ (80005f8 <SystemClock_Config+0xd4>)
 8000572:	f443 4300 	orr.w	r3, r3, #32768	@ 0x8000
 8000576:	6013      	str	r3, [r2, #0]
 8000578:	4b1f      	ldr	r3, [pc, #124]	@ (80005f8 <SystemClock_Config+0xd4>)
 800057a:	681b      	ldr	r3, [r3, #0]
 800057c:	f403 4340 	and.w	r3, r3, #49152	@ 0xc000
 8000580:	607b      	str	r3, [r7, #4]
 8000582:	687b      	ldr	r3, [r7, #4]
 8000584:	2302      	movs	r3, #2
 8000586:	623b      	str	r3, [r7, #32]
 8000588:	2301      	movs	r3, #1
 800058a:	62fb      	str	r3, [r7, #44]	@ 0x2c
 800058c:	2310      	movs	r3, #16
 800058e:	633b      	str	r3, [r7, #48]	@ 0x30
 8000590:	2302      	movs	r3, #2
 8000592:	63bb      	str	r3, [r7, #56]	@ 0x38
 8000594:	2300      	movs	r3, #0
 8000596:	63fb      	str	r3, [r7, #60]	@ 0x3c
 8000598:	2310      	movs	r3, #16
 800059a:	643b      	str	r3, [r7, #64]	@ 0x40
 800059c:	f44f 73a8 	mov.w	r3, #336	@ 0x150
 80005a0:	647b      	str	r3, [r7, #68]	@ 0x44
 80005a2:	2304      	movs	r3, #4
 80005a4:	64bb      	str	r3, [r7, #72]	@ 0x48
 80005a6:	2307      	movs	r3, #7
 80005a8:	64fb      	str	r3, [r7, #76]	@ 0x4c
 80005aa:	f107 0320 	add.w	r3, r7, #32
 80005ae:	4618      	mov	r0, r3
 80005b0:	f000 fcde 	bl	8000f70 <HAL_RCC_OscConfig>
 80005b4:	4603      	mov	r3, r0
 80005b6:	2b00      	cmp	r3, #0
 80005b8:	d001      	beq.n	80005be <SystemClock_Config+0x9a>
 80005ba:	f000 f8c9 	bl	8000750 <Error_Handler>
 80005be:	230f      	movs	r3, #15
 80005c0:	60fb      	str	r3, [r7, #12]
 80005c2:	2302      	movs	r3, #2
 80005c4:	613b      	str	r3, [r7, #16]
 80005c6:	2300      	movs	r3, #0
 80005c8:	617b      	str	r3, [r7, #20]
 80005ca:	f44f 5380 	mov.w	r3, #4096	@ 0x1000
 80005ce:	61bb      	str	r3, [r7, #24]
 80005d0:	2300      	movs	r3, #0
 80005d2:	61fb      	str	r3, [r7, #28]
 80005d4:	f107 030c 	add.w	r3, r7, #12
 80005d8:	2102      	movs	r1, #2
 80005da:	4618      	mov	r0, r3
 80005dc:	f000 ff40 	bl	8001460 <HAL_RCC_ClockConfig>
 80005e0:	4603      	mov	r3, r0
 80005e2:	2b00      	cmp	r3, #0
 80005e4:	d001      	beq.n	80005ea <SystemClock_Config+0xc6>
 80005e6:	f000 f8b3 	bl	8000750 <Error_Handler>
 80005ea:	bf00      	nop
 80005ec:	3750      	adds	r7, #80	@ 0x50
 80005ee:	46bd      	mov	sp, r7
 80005f0:	bd80      	pop	{r7, pc}
 80005f2:	bf00      	nop
 80005f4:	40023800 	.word	0x40023800
 80005f8:	40007000 	.word	0x40007000

080005fc <MX_USART2_UART_Init>:
 80005fc:	b580      	push	{r7, lr}
 80005fe:	af00      	add	r7, sp, #0
 8000600:	4b11      	ldr	r3, [pc, #68]	@ (8000648 <MX_USART2_UART_Init+0x4c>)
 8000602:	4a12      	ldr	r2, [pc, #72]	@ (800064c <MX_USART2_UART_Init+0x50>)
 8000604:	601a      	str	r2, [r3, #0]
 8000606:	4b10      	ldr	r3, [pc, #64]	@ (8000648 <MX_USART2_UART_Init+0x4c>)
 8000608:	f44f 32e1 	mov.w	r2, #115200	@ 0x1c200
 800060c:	605a      	str	r2, [r3, #4]
 800060e:	4b0e      	ldr	r3, [pc, #56]	@ (8000648 <MX_USART2_UART_Init+0x4c>)
 8000610:	2200      	movs	r2, #0
 8000612:	609a      	str	r2, [r3, #8]
 8000614:	4b0c      	ldr	r3, [pc, #48]	@ (8000648 <MX_USART2_UART_Init+0x4c>)
 8000616:	2200      	movs	r2, #0
 8000618:	60da      	str	r2, [r3, #12]
 800061a:	4b0b      	ldr	r3, [pc, #44]	@ (8000648 <MX_USART2_UART_Init+0x4c>)
 800061c:	2200      	movs	r2, #0
 800061e:	611a      	str	r2, [r3, #16]
 8000620:	4b09      	ldr	r3, [pc, #36]	@ (8000648 <MX_USART2_UART_Init+0x4c>)
 8000622:	220c      	movs	r2, #12
 8000624:	615a      	str	r2, [r3, #20]
 8000626:	4b08      	ldr	r3, [pc, #32]	@ (8000648 <MX_USART2_UART_Init+0x4c>)
 8000628:	2200      	movs	r2, #0
 800062a:	619a      	str	r2, [r3, #24]
 800062c:	4b06      	ldr	r3, [pc, #24]	@ (8000648 <MX_USART2_UART_Init+0x4c>)
 800062e:	2200      	movs	r2, #0
 8000630:	61da      	str	r2, [r3, #28]
 8000632:	4805      	ldr	r0, [pc, #20]	@ (8000648 <MX_USART2_UART_Init+0x4c>)
 8000634:	f001 fbda 	bl	8001dec <HAL_UART_Init>
 8000638:	4603      	mov	r3, r0
 800063a:	2b00      	cmp	r3, #0
 800063c:	d001      	beq.n	8000642 <MX_USART2_UART_Init+0x46>
 800063e:	f000 f887 	bl	8000750 <Error_Handler>
 8000642:	bf00      	nop
 8000644:	bd80      	pop	{r7, pc}
 8000646:	bf00      	nop
 8000648:	2000002c 	.word	0x2000002c
 800064c:	40004400 	.word	0x40004400

08000650 <MX_GPIO_Init>:
 8000650:	b580      	push	{r7, lr}
 8000652:	b08a      	sub	sp, #40	@ 0x28
 8000654:	af00      	add	r7, sp, #0
 8000656:	f107 0314 	add.w	r3, r7, #20
 800065a:	2200      	movs	r2, #0
 800065c:	601a      	str	r2, [r3, #0]
 800065e:	605a      	str	r2, [r3, #4]
 8000660:	609a      	str	r2, [r3, #8]
 8000662:	60da      	str	r2, [r3, #12]
 8000664:	611a      	str	r2, [r3, #16]
 8000666:	2300      	movs	r3, #0
 8000668:	613b      	str	r3, [r7, #16]
 800066a:	4b2d      	ldr	r3, [pc, #180]	@ (8000720 <MX_GPIO_Init+0xd0>)
 800066c:	6b1b      	ldr	r3, [r3, #48]	@ 0x30
 800066e:	4a2c      	ldr	r2, [pc, #176]	@ (8000720 <MX_GPIO_Init+0xd0>)
 8000670:	f043 0304 	orr.w	r3, r3, #4
 8000674:	6313      	str	r3, [r2, #48]	@ 0x30
 8000676:	4b2a      	ldr	r3, [pc, #168]	@ (8000720 <MX_GPIO_Init+0xd0>)
 8000678:	6b1b      	ldr	r3, [r3, #48]	@ 0x30
 800067a:	f003 0304 	and.w	r3, r3, #4
 800067e:	613b      	str	r3, [r7, #16]
 8000680:	693b      	ldr	r3, [r7, #16]
 8000682:	2300      	movs	r3, #0
 8000684:	60fb      	str	r3, [r7, #12]
 8000686:	4b26      	ldr	r3, [pc, #152]	@ (8000720 <MX_GPIO_Init+0xd0>)
 8000688:	6b1b      	ldr	r3, [r3, #48]	@ 0x30
 800068a:	4a25      	ldr	r2, [pc, #148]	@ (8000720 <MX_GPIO_Init+0xd0>)
 800068c:	f043 0380 	orr.w	r3, r3, #128	@ 0x80
 8000690:	6313      	str	r3, [r2, #48]	@ 0x30
 8000692:	4b23      	ldr	r3, [pc, #140]	@ (8000720 <MX_GPIO_Init+0xd0>)
 8000694:	6b1b      	ldr	r3, [r3, #48]	@ 0x30
 8000696:	f003 0380 	and.w	r3, r3, #128	@ 0x80
 800069a:	60fb      	str	r3, [r7, #12]
 800069c:	68fb      	ldr	r3, [r7, #12]
 800069e:	2300      	movs	r3, #0
 80006a0:	60bb      	str	r3, [r7, #8]
 80006a2:	4b1f      	ldr	r3, [pc, #124]	@ (8000720 <MX_GPIO_Init+0xd0>)
 80006a4:	6b1b      	ldr	r3, [r3, #48]	@ 0x30
 80006a6:	4a1e      	ldr	r2, [pc, #120]	@ (8000720 <MX_GPIO_Init+0xd0>)
 80006a8:	f043 0301 	orr.w	r3, r3, #1
 80006ac:	6313      	str	r3, [r2, #48]	@ 0x30
 80006ae:	4b1c      	ldr	r3, [pc, #112]	@ (8000720 <MX_GPIO_Init+0xd0>)
 80006b0:	6b1b      	ldr	r3, [r3, #48]	@ 0x30
 80006b2:	f003 0301 	and.w	r3, r3, #1
 80006b6:	60bb      	str	r3, [r7, #8]
 80006b8:	68bb      	ldr	r3, [r7, #8]
 80006ba:	2300      	movs	r3, #0
 80006bc:	607b      	str	r3, [r7, #4]
 80006be:	4b18      	ldr	r3, [pc, #96]	@ (8000720 <MX_GPIO_Init+0xd0>)
 80006c0:	6b1b      	ldr	r3, [r3, #48]	@ 0x30
 80006c2:	4a17      	ldr	r2, [pc, #92]	@ (8000720 <MX_GPIO_Init+0xd0>)
 80006c4:	f043 0302 	orr.w	r3, r3, #2
 80006c8:	6313      	str	r3, [r2, #48]	@ 0x30
 80006ca:	4b15      	ldr	r3, [pc, #84]	@ (8000720 <MX_GPIO_Init+0xd0>)
 80006cc:	6b1b      	ldr	r3, [r3, #48]	@ 0x30
 80006ce:	f003 0302 	and.w	r3, r3, #2
 80006d2:	607b      	str	r3, [r7, #4]
 80006d4:	687b      	ldr	r3, [r7, #4]
 80006d6:	2200      	movs	r2, #0
 80006d8:	2120      	movs	r1, #32
 80006da:	4812      	ldr	r0, [pc, #72]	@ (8000724 <MX_GPIO_Init+0xd4>)
 80006dc:	f000 fc2e 	bl	8000f3c <HAL_GPIO_WritePin>
 80006e0:	f44f 5300 	mov.w	r3, #8192	@ 0x2000
 80006e4:	617b      	str	r3, [r7, #20]
 80006e6:	f44f 1304 	mov.w	r3, #2162688	@ 0x210000
 80006ea:	61bb      	str	r3, [r7, #24]
 80006ec:	2300      	movs	r3, #0
 80006ee:	61fb      	str	r3, [r7, #28]
 80006f0:	f107 0314 	add.w	r3, r7, #20
 80006f4:	4619      	mov	r1, r3
 80006f6:	480c      	ldr	r0, [pc, #48]	@ (8000728 <MX_GPIO_Init+0xd8>)
 80006f8:	f000 fa9c 	bl	8000c34 <HAL_GPIO_Init>
 80006fc:	2320      	movs	r3, #32
 80006fe:	617b      	str	r3, [r7, #20]
 8000700:	2301      	movs	r3, #1
 8000702:	61bb      	str	r3, [r7, #24]
 8000704:	2300      	movs	r3, #0
 8000706:	61fb      	str	r3, [r7, #28]
 8000708:	2300      	movs	r3, #0
 800070a:	623b      	str	r3, [r7, #32]
 800070c:	f107 0314 	add.w	r3, r7, #20
 8000710:	4619      	mov	r1, r3
 8000712:	4804      	ldr	r0, [pc, #16]	@ (8000724 <MX_GPIO_Init+0xd4>)
 8000714:	f000 fa8e 	bl	8000c34 <HAL_GPIO_Init>
 8000718:	bf00      	nop
 800071a:	3728      	adds	r7, #40	@ 0x28
 800071c:	46bd      	mov	sp, r7
 800071e:	bd80      	pop	{r7, pc}
 8000720:	40023800 	.word	0x40023800
 8000724:	40020000 	.word	0x40020000
 8000728:	40020800 	.word	0x40020800

0800072c <HAL_TIM_PeriodElapsedCallback>:
 800072c:	b580      	push	{r7, lr}
 800072e:	b082      	sub	sp, #8
 8000730:	af00      	add	r7, sp, #0
 8000732:	6078      	str	r0, [r7, #4]
 8000734:	687b      	ldr	r3, [r7, #4]
 8000736:	681b      	ldr	r3, [r3, #0]
 8000738:	4a04      	ldr	r2, [pc, #16]	@ (800074c <HAL_TIM_PeriodElapsedCallback+0x20>)
 800073a:	4293      	cmp	r3, r2
 800073c:	d101      	bne.n	8000742 <HAL_TIM_PeriodElapsedCallback+0x16>
 800073e:	f000 f977 	bl	8000a30 <HAL_IncTick>
 8000742:	bf00      	nop
 8000744:	3708      	adds	r7, #8
 8000746:	46bd      	mov	sp, r7
 8000748:	bd80      	pop	{r7, pc}
 800074a:	bf00      	nop
 800074c:	40010000 	.word	0x40010000

08000750 <Error_Handler>:
 8000750:	b480      	push	{r7}
 8000752:	af00      	add	r7, sp, #0
 8000754:	b672      	cpsid	i
 8000756:	bf00      	nop
 8000758:	bf00      	nop
 800075a:	e7fd      	b.n	8000758 <Error_Handler+0x8>

0800075c <HAL_MspInit>:
 800075c:	b580      	push	{r7, lr}
 800075e:	b082      	sub	sp, #8
 8000760:	af00      	add	r7, sp, #0
 8000762:	2300      	movs	r3, #0
 8000764:	607b      	str	r3, [r7, #4]
 8000766:	4b12      	ldr	r3, [pc, #72]	@ (80007b0 <HAL_MspInit+0x54>)
 8000768:	6c5b      	ldr	r3, [r3, #68]	@ 0x44
 800076a:	4a11      	ldr	r2, [pc, #68]	@ (80007b0 <HAL_MspInit+0x54>)
 800076c:	f443 4380 	orr.w	r3, r3, #16384	@ 0x4000
 8000770:	6453      	str	r3, [r2, #68]	@ 0x44
 8000772:	4b0f      	ldr	r3, [pc, #60]	@ (80007b0 <HAL_MspInit+0x54>)
 8000774:	6c5b      	ldr	r3, [r3, #68]	@ 0x44
 8000776:	f403 4380 	and.w	r3, r3, #16384	@ 0x4000
 800077a:	607b      	str	r3, [r7, #4]
 800077c:	687b      	ldr	r3, [r7, #4]
 800077e:	2300      	movs	r3, #0
 8000780:	603b      	str	r3, [r7, #0]
 8000782:	4b0b      	ldr	r3, [pc, #44]	@ (80007b0 <HAL_MspInit+0x54>)
 8000784:	6c1b      	ldr	r3, [r3, #64]	@ 0x40
 8000786:	4a0a      	ldr	r2, [pc, #40]	@ (80007b0 <HAL_MspInit+0x54>)
 8000788:	f043 5380 	orr.w	r3, r3, #268435456	@ 0x10000000
 800078c:	6413      	str	r3, [r2, #64]	@ 0x40
 800078e:	4b08      	ldr	r3, [pc, #32]	@ (80007b0 <HAL_MspInit+0x54>)
 8000790:	6c1b      	ldr	r3, [r3, #64]	@ 0x40
 8000792:	f003 5380 	and.w	r3, r3, #268435456	@ 0x10000000
 8000796:	603b      	str	r3, [r7, #0]
 8000798:	683b      	ldr	r3, [r7, #0]
 800079a:	2200      	movs	r2, #0
 800079c:	210f      	movs	r1, #15
 800079e:	f06f 0001 	mvn.w	r0, #1
 80007a2:	f000 fa1d 	bl	8000be0 <HAL_NVIC_SetPriority>
 80007a6:	bf00      	nop
 80007a8:	3708      	adds	r7, #8
 80007aa:	46bd      	mov	sp, r7
 80007ac:	bd80      	pop	{r7, pc}
 80007ae:	bf00      	nop
 80007b0:	40023800 	.word	0x40023800

080007b4 <HAL_UART_MspInit>:
 80007b4:	b580      	push	{r7, lr}
 80007b6:	b08a      	sub	sp, #40	@ 0x28
 80007b8:	af00      	add	r7, sp, #0
 80007ba:	6078      	str	r0, [r7, #4]
 80007bc:	f107 0314 	add.w	r3, r7, #20
 80007c0:	2200      	movs	r2, #0
 80007c2:	601a      	str	r2, [r3, #0]
 80007c4:	605a      	str	r2, [r3, #4]
 80007c6:	609a      	str	r2, [r3, #8]
 80007c8:	60da      	str	r2, [r3, #12]
 80007ca:	611a      	str	r2, [r3, #16]
 80007cc:	687b      	ldr	r3, [r7, #4]
 80007ce:	681b      	ldr	r3, [r3, #0]
 80007d0:	4a19      	ldr	r2, [pc, #100]	@ (8000838 <HAL_UART_MspInit+0x84>)
 80007d2:	4293      	cmp	r3, r2
 80007d4:	d12b      	bne.n	800082e <HAL_UART_MspInit+0x7a>
 80007d6:	2300      	movs	r3, #0
 80007d8:	613b      	str	r3, [r7, #16]
 80007da:	4b18      	ldr	r3, [pc, #96]	@ (800083c <HAL_UART_MspInit+0x88>)
 80007dc:	6c1b      	ldr	r3, [r3, #64]	@ 0x40
 80007de:	4a17      	ldr	r2, [pc, #92]	@ (800083c <HAL_UART_MspInit+0x88>)
 80007e0:	f443 3300 	orr.w	r3, r3, #131072	@ 0x20000
 80007e4:	6413      	str	r3, [r2, #64]	@ 0x40
 80007e6:	4b15      	ldr	r3, [pc, #84]	@ (800083c <HAL_UART_MspInit+0x88>)
 80007e8:	6c1b      	ldr	r3, [r3, #64]	@ 0x40
 80007ea:	f403 3300 	and.w	r3, r3, #131072	@ 0x20000
 80007ee:	613b      	str	r3, [r7, #16]
 80007f0:	693b      	ldr	r3, [r7, #16]
 80007f2:	2300      	movs	r3, #0
 80007f4:	60fb      	str	r3, [r7, #12]
 80007f6:	4b11      	ldr	r3, [pc, #68]	@ (800083c <HAL_UART_MspInit+0x88>)
 80007f8:	6b1b      	ldr	r3, [r3, #48]	@ 0x30
 80007fa:	4a10      	ldr	r2, [pc, #64]	@ (800083c <HAL_UART_MspInit+0x88>)
 80007fc:	f043 0301 	orr.w	r3, r3, #1
 8000800:	6313      	str	r3, [r2, #48]	@ 0x30
 8000802:	4b0e      	ldr	r3, [pc, #56]	@ (800083c <HAL_UART_MspInit+0x88>)
 8000804:	6b1b      	ldr	r3, [r3, #48]	@ 0x30
 8000806:	f003 0301 	and.w	r3, r3, #1
 800080a:	60fb      	str	r3, [r7, #12]
 800080c:	68fb      	ldr	r3, [r7, #12]
 800080e:	230c      	movs	r3, #12
 8000810:	617b      	str	r3, [r7, #20]
 8000812:	2302      	movs	r3, #2
 8000814:	61bb      	str	r3, [r7, #24]
 8000816:	2300      	movs	r3, #0
 8000818:	61fb      	str	r3, [r7, #28]
 800081a:	2300      	movs	r3, #0
 800081c:	623b      	str	r3, [r7, #32]
 800081e:	2307      	movs	r3, #7
 8000820:	627b      	str	r3, [r7, #36]	@ 0x24
 8000822:	f107 0314 	add.w	r3, r7, #20
 8000826:	4619      	mov	r1, r3
 8000828:	4805      	ldr	r0, [pc, #20]	@ (8000840 <HAL_UART_MspInit+0x8c>)
 800082a:	f000 fa03 	bl	8000c34 <HAL_GPIO_Init>
 800082e:	bf00      	nop
 8000830:	3728      	adds	r7, #40	@ 0x28
 8000832:	46bd      	mov	sp, r7
 8000834:	bd80      	pop	{r7, pc}
 8000836:	bf00      	nop
 8000838:	40004400 	.word	0x40004400
 800083c:	40023800 	.word	0x40023800
 8000840:	40020000 	.word	0x40020000

08000844 <HAL_InitTick>:
 8000844:	b580      	push	{r7, lr}
 8000846:	b08c      	sub	sp, #48	@ 0x30
 8000848:	af00      	add	r7, sp, #0
 800084a:	6078      	str	r0, [r7, #4]
 800084c:	2300      	movs	r3, #0
 800084e:	62bb      	str	r3, [r7, #40]	@ 0x28
 8000850:	2300      	movs	r3, #0
 8000852:	627b      	str	r3, [r7, #36]	@ 0x24
 8000854:	2300      	movs	r3, #0
 8000856:	60bb      	str	r3, [r7, #8]
 8000858:	4b2e      	ldr	r3, [pc, #184]	@ (8000914 <HAL_InitTick+0xd0>)
 800085a:	6c5b      	ldr	r3, [r3, #68]	@ 0x44
 800085c:	4a2d      	ldr	r2, [pc, #180]	@ (8000914 <HAL_InitTick+0xd0>)
 800085e:	f043 0301 	orr.w	r3, r3, #1
 8000862:	6453      	str	r3, [r2, #68]	@ 0x44
 8000864:	4b2b      	ldr	r3, [pc, #172]	@ (8000914 <HAL_InitTick+0xd0>)
 8000866:	6c5b      	ldr	r3, [r3, #68]	@ 0x44
 8000868:	f003 0301 	and.w	r3, r3, #1
 800086c:	60bb      	str	r3, [r7, #8]
 800086e:	68bb      	ldr	r3, [r7, #8]
 8000870:	f107 020c 	add.w	r2, r7, #12
 8000874:	f107 0310 	add.w	r3, r7, #16
 8000878:	4611      	mov	r1, r2
 800087a:	4618      	mov	r0, r3
 800087c:	f001 f810 	bl	80018a0 <HAL_RCC_GetClockConfig>
 8000880:	f000 fffa 	bl	8001878 <HAL_RCC_GetPCLK2Freq>
 8000884:	62b8      	str	r0, [r7, #40]	@ 0x28
 8000886:	6abb      	ldr	r3, [r7, #40]	@ 0x28
 8000888:	4a23      	ldr	r2, [pc, #140]	@ (8000918 <HAL_InitTick+0xd4>)
 800088a:	fba2 2303 	umull	r2, r3, r2, r3
 800088e:	0c9b      	lsrs	r3, r3, #18
 8000890:	3b01      	subs	r3, #1
 8000892:	627b      	str	r3, [r7, #36]	@ 0x24
 8000894:	4b21      	ldr	r3, [pc, #132]	@ (800091c <HAL_InitTick+0xd8>)
 8000896:	4a22      	ldr	r2, [pc, #136]	@ (8000920 <HAL_InitTick+0xdc>)
 8000898:	601a      	str	r2, [r3, #0]
 800089a:	4b20      	ldr	r3, [pc, #128]	@ (800091c <HAL_InitTick+0xd8>)
 800089c:	f240 32e7 	movw	r2, #999	@ 0x3e7
 80008a0:	60da      	str	r2, [r3, #12]
 80008a2:	4a1e      	ldr	r2, [pc, #120]	@ (800091c <HAL_InitTick+0xd8>)
 80008a4:	6a7b      	ldr	r3, [r7, #36]	@ 0x24
 80008a6:	6053      	str	r3, [r2, #4]
 80008a8:	4b1c      	ldr	r3, [pc, #112]	@ (800091c <HAL_InitTick+0xd8>)
 80008aa:	2200      	movs	r2, #0
 80008ac:	611a      	str	r2, [r3, #16]
 80008ae:	4b1b      	ldr	r3, [pc, #108]	@ (800091c <HAL_InitTick+0xd8>)
 80008b0:	2200      	movs	r2, #0
 80008b2:	609a      	str	r2, [r3, #8]
 80008b4:	4b19      	ldr	r3, [pc, #100]	@ (800091c <HAL_InitTick+0xd8>)
 80008b6:	2200      	movs	r2, #0
 80008b8:	619a      	str	r2, [r3, #24]
 80008ba:	4818      	ldr	r0, [pc, #96]	@ (800091c <HAL_InitTick+0xd8>)
 80008bc:	f001 f822 	bl	8001904 <HAL_TIM_Base_Init>
 80008c0:	4603      	mov	r3, r0
 80008c2:	f887 302f 	strb.w	r3, [r7, #47]	@ 0x2f
 80008c6:	f897 302f 	ldrb.w	r3, [r7, #47]	@ 0x2f
 80008ca:	2b00      	cmp	r3, #0
 80008cc:	d11b      	bne.n	8000906 <HAL_InitTick+0xc2>
 80008ce:	4813      	ldr	r0, [pc, #76]	@ (800091c <HAL_InitTick+0xd8>)
 80008d0:	f001 f872 	bl	80019b8 <HAL_TIM_Base_Start_IT>
 80008d4:	4603      	mov	r3, r0
 80008d6:	f887 302f 	strb.w	r3, [r7, #47]	@ 0x2f
 80008da:	f897 302f 	ldrb.w	r3, [r7, #47]	@ 0x2f
 80008de:	2b00      	cmp	r3, #0
 80008e0:	d111      	bne.n	8000906 <HAL_InitTick+0xc2>
 80008e2:	2019      	movs	r0, #25
 80008e4:	f000 f998 	bl	8000c18 <HAL_NVIC_EnableIRQ>
 80008e8:	687b      	ldr	r3, [r7, #4]
 80008ea:	2b0f      	cmp	r3, #15
 80008ec:	d808      	bhi.n	8000900 <HAL_InitTick+0xbc>
 80008ee:	2200      	movs	r2, #0
 80008f0:	6879      	ldr	r1, [r7, #4]
 80008f2:	2019      	movs	r0, #25
 80008f4:	f000 f974 	bl	8000be0 <HAL_NVIC_SetPriority>
 80008f8:	4a0a      	ldr	r2, [pc, #40]	@ (8000924 <HAL_InitTick+0xe0>)
 80008fa:	687b      	ldr	r3, [r7, #4]
 80008fc:	6013      	str	r3, [r2, #0]
 80008fe:	e002      	b.n	8000906 <HAL_InitTick+0xc2>
 8000900:	2301      	movs	r3, #1
 8000902:	f887 302f 	strb.w	r3, [r7, #47]	@ 0x2f
 8000906:	f897 302f 	ldrb.w	r3, [r7, #47]	@ 0x2f
 800090a:	4618      	mov	r0, r3
 800090c:	3730      	adds	r7, #48	@ 0x30
 800090e:	46bd      	mov	sp, r7
 8000910:	bd80      	pop	{r7, pc}
 8000912:	bf00      	nop
 8000914:	40023800 	.word	0x40023800
 8000918:	431bde83 	.word	0x431bde83
 800091c:	20000078 	.word	0x20000078
 8000920:	40010000 	.word	0x40010000
 8000924:	20000004 	.word	0x20000004

08000928 <NMI_Handler>:
 8000928:	b480      	push	{r7}
 800092a:	af00      	add	r7, sp, #0
 800092c:	bf00      	nop
 800092e:	e7fd      	b.n	800092c <NMI_Handler+0x4>

08000930 <HardFault_Handler>:
 8000930:	b480      	push	{r7}
 8000932:	af00      	add	r7, sp, #0
 8000934:	bf00      	nop
 8000936:	e7fd      	b.n	8000934 <HardFault_Handler+0x4>

08000938 <MemManage_Handler>:
 8000938:	b480      	push	{r7}
 800093a:	af00      	add	r7, sp, #0
 800093c:	bf00      	nop
 800093e:	e7fd      	b.n	800093c <MemManage_Handler+0x4>

08000940 <BusFault_Handler>:
 8000940:	b480      	push	{r7}
 8000942:	af00      	add	r7, sp, #0
 8000944:	bf00      	nop
 8000946:	e7fd      	b.n	8000944 <BusFault_Handler+0x4>

08000948 <UsageFault_Handler>:
 8000948:	b480      	push	{r7}
 800094a:	af00      	add	r7, sp, #0
 800094c:	bf00      	nop
 800094e:	e7fd      	b.n	800094c <UsageFault_Handler+0x4>

08000950 <DebugMon_Handler>:
 8000950:	b480      	push	{r7}
 8000952:	af00      	add	r7, sp, #0
 8000954:	bf00      	nop
 8000956:	46bd      	mov	sp, r7
 8000958:	f85d 7b04 	ldr.w	r7, [sp], #4
 800095c:	4770      	bx	lr
	...

08000960 <TIM1_UP_TIM10_IRQHandler>:
 8000960:	b580      	push	{r7, lr}
 8000962:	af00      	add	r7, sp, #0
 8000964:	4802      	ldr	r0, [pc, #8]	@ (8000970 <TIM1_UP_TIM10_IRQHandler+0x10>)
 8000966:	f001 f889 	bl	8001a7c <HAL_TIM_IRQHandler>
 800096a:	bf00      	nop
 800096c:	bd80      	pop	{r7, pc}
 800096e:	bf00      	nop
 8000970:	20000078 	.word	0x20000078

08000974 <SystemInit>:
 8000974:	b480      	push	{r7}
 8000976:	af00      	add	r7, sp, #0
 8000978:	4b06      	ldr	r3, [pc, #24]	@ (8000994 <SystemInit+0x20>)
 800097a:	f8d3 3088 	ldr.w	r3, [r3, #136]	@ 0x88
 800097e:	4a05      	ldr	r2, [pc, #20]	@ (8000994 <SystemInit+0x20>)
 8000980:	f443 0370 	orr.w	r3, r3, #15728640	@ 0xf00000
 8000984:	f8c2 3088 	str.w	r3, [r2, #136]	@ 0x88
 8000988:	bf00      	nop
 800098a:	46bd      	mov	sp, r7
 800098c:	f85d 7b04 	ldr.w	r7, [sp], #4
 8000990:	4770      	bx	lr
 8000992:	bf00      	nop
 8000994:	e000ed00 	.word	0xe000ed00

08000998 <Reset_Handler>:
 8000998:	f8df d034 	ldr.w	sp, [pc, #52]	@ 80009d0 <LoopFillZerobss+0xe>
 800099c:	f7ff ffea 	bl	8000974 <SystemInit>
 80009a0:	480c      	ldr	r0, [pc, #48]	@ (80009d4 <LoopFillZerobss+0x12>)
 80009a2:	490d      	ldr	r1, [pc, #52]	@ (80009d8 <LoopFillZerobss+0x16>)
 80009a4:	4a0d      	ldr	r2, [pc, #52]	@ (80009dc <LoopFillZerobss+0x1a>)
 80009a6:	2300      	movs	r3, #0
 80009a8:	e002      	b.n	80009b0 <LoopCopyDataInit>

080009aa <CopyDataInit>:
 80009aa:	58d4      	ldr	r4, [r2, r3]
 80009ac:	50c4      	str	r4, [r0, r3]
 80009ae:	3304      	adds	r3, #4

080009b0 <LoopCopyDataInit>:
 80009b0:	18c4      	adds	r4, r0, r3
 80009b2:	428c      	cmp	r4, r1
 80009b4:	d3f9      	bcc.n	80009aa <CopyDataInit>
 80009b6:	4a0a      	ldr	r2, [pc, #40]	@ (80009e0 <LoopFillZerobss+0x1e>)
 80009b8:	4c0a      	ldr	r4, [pc, #40]	@ (80009e4 <LoopFillZerobss+0x22>)
 80009ba:	2300      	movs	r3, #0
 80009bc:	e001      	b.n	80009c2 <LoopFillZerobss>

080009be <FillZerobss>:
 80009be:	6013      	str	r3, [r2, #0]
 80009c0:	3204      	adds	r2, #4

080009c2 <LoopFillZerobss>:
 80009c2:	42a2      	cmp	r2, r4
 80009c4:	d3fb      	bcc.n	80009be <FillZerobss>
 80009c6:	f004 f93f 	bl	8004c48 <__libc_init_array>
 80009ca:	f7ff fd81 	bl	80004d0 <main>
 80009ce:	4770      	bx	lr
 80009d0:	20018000 	.word	0x20018000
 80009d4:	20000000 	.word	0x20000000
 80009d8:	20000010 	.word	0x20000010
 80009dc:	08004d10 	.word	0x08004d10
 80009e0:	20000010 	.word	0x20000010
 80009e4:	20004a10 	.word	0x20004a10

080009e8 <ADC_IRQHandler>:
 80009e8:	e7fe      	b.n	80009e8 <ADC_IRQHandler>
	...

080009ec <HAL_Init>:
 80009ec:	b580      	push	{r7, lr}
 80009ee:	af00      	add	r7, sp, #0
 80009f0:	4b0e      	ldr	r3, [pc, #56]	@ (8000a2c <HAL_Init+0x40>)
 80009f2:	681b      	ldr	r3, [r3, #0]
 80009f4:	4a0d      	ldr	r2, [pc, #52]	@ (8000a2c <HAL_Init+0x40>)
 80009f6:	f443 7300 	orr.w	r3, r3, #512	@ 0x200
 80009fa:	6013      	str	r3, [r2, #0]
 80009fc:	4b0b      	ldr	r3, [pc, #44]	@ (8000a2c <HAL_Init+0x40>)
 80009fe:	681b      	ldr	r3, [r3, #0]
 8000a00:	4a0a      	ldr	r2, [pc, #40]	@ (8000a2c <HAL_Init+0x40>)
 8000a02:	f443 6380 	orr.w	r3, r3, #1024	@ 0x400
 8000a06:	6013      	str	r3, [r2, #0]
 8000a08:	4b08      	ldr	r3, [pc, #32]	@ (8000a2c <HAL_Init+0x40>)
 8000a0a:	681b      	ldr	r3, [r3, #0]
 8000a0c:	4a07      	ldr	r2, [pc, #28]	@ (8000a2c <HAL_Init+0x40>)
 8000a0e:	f443 7380 	orr.w	r3, r3, #256	@ 0x100
 8000a12:	6013      	str	r3, [r2, #0]
 8000a14:	2003      	movs	r0, #3
 8000a16:	f000 f8d8 	bl	8000bca <HAL_NVIC_SetPriorityGrouping>
 8000a1a:	200f      	movs	r0, #15
 8000a1c:	f7ff ff12 	bl	8000844 <HAL_InitTick>
 8000a20:	f7ff fe9c 	bl	800075c <HAL_MspInit>
 8000a24:	2300      	movs	r3, #0
 8000a26:	4618      	mov	r0, r3
 8000a28:	bd80      	pop	{r7, pc}
 8000a2a:	bf00      	nop
 8000a2c:	40023c00 	.word	0x40023c00

08000a30 <HAL_IncTick>:
 8000a30:	b480      	push	{r7}
 8000a32:	af00      	add	r7, sp, #0
 8000a34:	4b06      	ldr	r3, [pc, #24]	@ (8000a50 <HAL_IncTick+0x20>)
 8000a36:	781b      	ldrb	r3, [r3, #0]
 8000a38:	461a      	mov	r2, r3
 8000a3a:	4b06      	ldr	r3, [pc, #24]	@ (8000a54 <HAL_IncTick+0x24>)
 8000a3c:	681b      	ldr	r3, [r3, #0]
 8000a3e:	4413      	add	r3, r2
 8000a40:	4a04      	ldr	r2, [pc, #16]	@ (8000a54 <HAL_IncTick+0x24>)
 8000a42:	6013      	str	r3, [r2, #0]
 8000a44:	bf00      	nop
 8000a46:	46bd      	mov	sp, r7
 8000a48:	f85d 7b04 	ldr.w	r7, [sp], #4
 8000a4c:	4770      	bx	lr
 8000a4e:	bf00      	nop
 8000a50:	20000008 	.word	0x20000008
 8000a54:	200000c0 	.word	0x200000c0

08000a58 <HAL_GetTick>:
 8000a58:	b480      	push	{r7}
 8000a5a:	af00      	add	r7, sp, #0
 8000a5c:	4b03      	ldr	r3, [pc, #12]	@ (8000a6c <HAL_GetTick+0x14>)
 8000a5e:	681b      	ldr	r3, [r3, #0]
 8000a60:	4618      	mov	r0, r3
 8000a62:	46bd      	mov	sp, r7
 8000a64:	f85d 7b04 	ldr.w	r7, [sp], #4
 8000a68:	4770      	bx	lr
 8000a6a:	bf00      	nop
 8000a6c:	200000c0 	.word	0x200000c0

08000a70 <__NVIC_SetPriorityGrouping>:
 8000a70:	b480      	push	{r7}
 8000a72:	b085      	sub	sp, #20
 8000a74:	af00      	add	r7, sp, #0
 8000a76:	6078      	str	r0, [r7, #4]
 8000a78:	687b      	ldr	r3, [r7, #4]
 8000a7a:	f003 0307 	and.w	r3, r3, #7
 8000a7e:	60fb      	str	r3, [r7, #12]
 8000a80:	4b0c      	ldr	r3, [pc, #48]	@ (8000ab4 <__NVIC_SetPriorityGrouping+0x44>)
 8000a82:	68db      	ldr	r3, [r3, #12]
 8000a84:	60bb      	str	r3, [r7, #8]
 8000a86:	68ba      	ldr	r2, [r7, #8]
 8000a88:	f64f 03ff 	movw	r3, #63743	@ 0xf8ff
 8000a8c:	4013      	ands	r3, r2
 8000a8e:	60bb      	str	r3, [r7, #8]
 8000a90:	68fb      	ldr	r3, [r7, #12]
 8000a92:	021a      	lsls	r2, r3, #8
 8000a94:	68bb      	ldr	r3, [r7, #8]
 8000a96:	4313      	orrs	r3, r2
 8000a98:	f043 63bf 	orr.w	r3, r3, #100139008	@ 0x5f80000
 8000a9c:	f443 3300 	orr.w	r3, r3, #131072	@ 0x20000
 8000aa0:	60bb      	str	r3, [r7, #8]
 8000aa2:	4a04      	ldr	r2, [pc, #16]	@ (8000ab4 <__NVIC_SetPriorityGrouping+0x44>)
 8000aa4:	68bb      	ldr	r3, [r7, #8]
 8000aa6:	60d3      	str	r3, [r2, #12]
 8000aa8:	bf00      	nop
 8000aaa:	3714      	adds	r7, #20
 8000aac:	46bd      	mov	sp, r7
 8000aae:	f85d 7b04 	ldr.w	r7, [sp], #4
 8000ab2:	4770      	bx	lr
 8000ab4:	e000ed00 	.word	0xe000ed00

08000ab8 <__NVIC_GetPriorityGrouping>:
 8000ab8:	b480      	push	{r7}
 8000aba:	af00      	add	r7, sp, #0
 8000abc:	4b04      	ldr	r3, [pc, #16]	@ (8000ad0 <__NVIC_GetPriorityGrouping+0x18>)
 8000abe:	68db      	ldr	r3, [r3, #12]
 8000ac0:	0a1b      	lsrs	r3, r3, #8
 8000ac2:	f003 0307 	and.w	r3, r3, #7
 8000ac6:	4618      	mov	r0, r3
 8000ac8:	46bd      	mov	sp, r7
 8000aca:	f85d 7b04 	ldr.w	r7, [sp], #4
 8000ace:	4770      	bx	lr
 8000ad0:	e000ed00 	.word	0xe000ed00

08000ad4 <__NVIC_EnableIRQ>:
 8000ad4:	b480      	push	{r7}
 8000ad6:	b083      	sub	sp, #12
 8000ad8:	af00      	add	r7, sp, #0
 8000ada:	4603      	mov	r3, r0
 8000adc:	71fb      	strb	r3, [r7, #7]
 8000ade:	f997 3007 	ldrsb.w	r3, [r7, #7]
 8000ae2:	2b00      	cmp	r3, #0
 8000ae4:	db0b      	blt.n	8000afe <__NVIC_EnableIRQ+0x2a>
 8000ae6:	79fb      	ldrb	r3, [r7, #7]
 8000ae8:	f003 021f 	and.w	r2, r3, #31
 8000aec:	4907      	ldr	r1, [pc, #28]	@ (8000b0c <__NVIC_EnableIRQ+0x38>)
 8000aee:	f997 3007 	ldrsb.w	r3, [r7, #7]
 8000af2:	095b      	lsrs	r3, r3, #5
 8000af4:	2001      	movs	r0, #1
 8000af6:	fa00 f202 	lsl.w	r2, r0, r2
 8000afa:	f841 2023 	str.w	r2, [r1, r3, lsl #2]
 8000afe:	bf00      	nop
 8000b00:	370c      	adds	r7, #12
 8000b02:	46bd      	mov	sp, r7
 8000b04:	f85d 7b04 	ldr.w	r7, [sp], #4
 8000b08:	4770      	bx	lr
 8000b0a:	bf00      	nop
 8000b0c:	e000e100 	.word	0xe000e100

08000b10 <__NVIC_SetPriority>:
 8000b10:	b480      	push	{r7}
 8000b12:	b083      	sub	sp, #12
 8000b14:	af00      	add	r7, sp, #0
 8000b16:	4603      	mov	r3, r0
 8000b18:	6039      	str	r1, [r7, #0]
 8000b1a:	71fb      	strb	r3, [r7, #7]
 8000b1c:	f997 3007 	ldrsb.w	r3, [r7, #7]
 8000b20:	2b00      	cmp	r3, #0
 8000b22:	db0a      	blt.n	8000b3a <__NVIC_SetPriority+0x2a>
 8000b24:	683b      	ldr	r3, [r7, #0]
 8000b26:	b2da      	uxtb	r2, r3
 8000b28:	490c      	ldr	r1, [pc, #48]	@ (8000b5c <__NVIC_SetPriority+0x4c>)
 8000b2a:	f997 3007 	ldrsb.w	r3, [r7, #7]
 8000b2e:	0112      	lsls	r2, r2, #4
 8000b30:	b2d2      	uxtb	r2, r2
 8000b32:	440b      	add	r3, r1
 8000b34:	f883 2300 	strb.w	r2, [r3, #768]	@ 0x300
 8000b38:	e00a      	b.n	8000b50 <__NVIC_SetPriority+0x40>
 8000b3a:	683b      	ldr	r3, [r7, #0]
 8000b3c:	b2da      	uxtb	r2, r3
 8000b3e:	4908      	ldr	r1, [pc, #32]	@ (8000b60 <__NVIC_SetPriority+0x50>)
 8000b40:	79fb      	ldrb	r3, [r7, #7]
 8000b42:	f003 030f 	and.w	r3, r3, #15
 8000b46:	3b04      	subs	r3, #4
 8000b48:	0112      	lsls	r2, r2, #4
 8000b4a:	b2d2      	uxtb	r2, r2
 8000b4c:	440b      	add	r3, r1
 8000b4e:	761a      	strb	r2, [r3, #24]
 8000b50:	bf00      	nop
 8000b52:	370c      	adds	r7, #12
 8000b54:	46bd      	mov	sp, r7
 8000b56:	f85d 7b04 	ldr.w	r7, [sp], #4
 8000b5a:	4770      	bx	lr
 8000b5c:	e000e100 	.word	0xe000e100
 8000b60:	e000ed00 	.word	0xe000ed00

08000b64 <NVIC_EncodePriority>:
 8000b64:	b480      	push	{r7}
 8000b66:	b089      	sub	sp, #36	@ 0x24
 8000b68:	af00      	add	r7, sp, #0
 8000b6a:	60f8      	str	r0, [r7, #12]
 8000b6c:	60b9      	str	r1, [r7, #8]
 8000b6e:	607a      	str	r2, [r7, #4]
 8000b70:	68fb      	ldr	r3, [r7, #12]
 8000b72:	f003 0307 	and.w	r3, r3, #7
 8000b76:	61fb      	str	r3, [r7, #28]
 8000b78:	69fb      	ldr	r3, [r7, #28]
 8000b7a:	f1c3 0307 	rsb	r3, r3, #7
 8000b7e:	2b04      	cmp	r3, #4
 8000b80:	bf28      	it	cs
 8000b82:	2304      	movcs	r3, #4
 8000b84:	61bb      	str	r3, [r7, #24]
 8000b86:	69fb      	ldr	r3, [r7, #28]
 8000b88:	3304      	adds	r3, #4
 8000b8a:	2b06      	cmp	r3, #6
 8000b8c:	d902      	bls.n	8000b94 <NVIC_EncodePriority+0x30>
 8000b8e:	69fb      	ldr	r3, [r7, #28]
 8000b90:	3b03      	subs	r3, #3
 8000b92:	e000      	b.n	8000b96 <NVIC_EncodePriority+0x32>
 8000b94:	2300      	movs	r3, #0
 8000b96:	617b      	str	r3, [r7, #20]
 8000b98:	f04f 32ff 	mov.w	r2, #4294967295
 8000b9c:	69bb      	ldr	r3, [r7, #24]
 8000b9e:	fa02 f303 	lsl.w	r3, r2, r3
 8000ba2:	43da      	mvns	r2, r3
 8000ba4:	68bb      	ldr	r3, [r7, #8]
 8000ba6:	401a      	ands	r2, r3
 8000ba8:	697b      	ldr	r3, [r7, #20]
 8000baa:	409a      	lsls	r2, r3
 8000bac:	f04f 31ff 	mov.w	r1, #4294967295
 8000bb0:	697b      	ldr	r3, [r7, #20]
 8000bb2:	fa01 f303 	lsl.w	r3, r1, r3
 8000bb6:	43d9      	mvns	r1, r3
 8000bb8:	687b      	ldr	r3, [r7, #4]
 8000bba:	400b      	ands	r3, r1
 8000bbc:	4313      	orrs	r3, r2
 8000bbe:	4618      	mov	r0, r3
 8000bc0:	3724      	adds	r7, #36	@ 0x24
 8000bc2:	46bd      	mov	sp, r7
 8000bc4:	f85d 7b04 	ldr.w	r7, [sp], #4
 8000bc8:	4770      	bx	lr

08000bca <HAL_NVIC_SetPriorityGrouping>:
 8000bca:	b580      	push	{r7, lr}
 8000bcc:	b082      	sub	sp, #8
 8000bce:	af00      	add	r7, sp, #0
 8000bd0:	6078      	str	r0, [r7, #4]
 8000bd2:	6878      	ldr	r0, [r7, #4]
 8000bd4:	f7ff ff4c 	bl	8000a70 <__NVIC_SetPriorityGrouping>
 8000bd8:	bf00      	nop
 8000bda:	3708      	adds	r7, #8
 8000bdc:	46bd      	mov	sp, r7
 8000bde:	bd80      	pop	{r7, pc}

08000be0 <HAL_NVIC_SetPriority>:
 8000be0:	b580      	push	{r7, lr}
 8000be2:	b086      	sub	sp, #24
 8000be4:	af00      	add	r7, sp, #0
 8000be6:	4603      	mov	r3, r0
 8000be8:	60b9      	str	r1, [r7, #8]
 8000bea:	607a      	str	r2, [r7, #4]
 8000bec:	73fb      	strb	r3, [r7, #15]
 8000bee:	2300      	movs	r3, #0
 8000bf0:	617b      	str	r3, [r7, #20]
 8000bf2:	f7ff ff61 	bl	8000ab8 <__NVIC_GetPriorityGrouping>
 8000bf6:	6178      	str	r0, [r7, #20]
 8000bf8:	687a      	ldr	r2, [r7, #4]
 8000bfa:	68b9      	ldr	r1, [r7, #8]
 8000bfc:	6978      	ldr	r0, [r7, #20]
 8000bfe:	f7ff ffb1 	bl	8000b64 <NVIC_EncodePriority>
 8000c02:	4602      	mov	r2, r0
 8000c04:	f997 300f 	ldrsb.w	r3, [r7, #15]
 8000c08:	4611      	mov	r1, r2
 8000c0a:	4618      	mov	r0, r3
 8000c0c:	f7ff ff80 	bl	8000b10 <__NVIC_SetPriority>
 8000c10:	bf00      	nop
 8000c12:	3718      	adds	r7, #24
 8000c14:	46bd      	mov	sp, r7
 8000c16:	bd80      	pop	{r7, pc}

08000c18 <HAL_NVIC_EnableIRQ>:
 8000c18:	b580      	push	{r7, lr}
 8000c1a:	b082      	sub	sp, #8
 8000c1c:	af00      	add	r7, sp, #0
 8000c1e:	4603      	mov	r3, r0
 8000c20:	71fb      	strb	r3, [r7, #7]
 8000c22:	f997 3007 	ldrsb.w	r3, [r7, #7]
 8000c26:	4618      	mov	r0, r3
 8000c28:	f7ff ff54 	bl	8000ad4 <__NVIC_EnableIRQ>
 8000c2c:	bf00      	nop
 8000c2e:	3708      	adds	r7, #8
 8000c30:	46bd      	mov	sp, r7
 8000c32:	bd80      	pop	{r7, pc}

08000c34 <HAL_GPIO_Init>:
 8000c34:	b480      	push	{r7}
 8000c36:	b089      	sub	sp, #36	@ 0x24
 8000c38:	af00      	add	r7, sp, #0
 8000c3a:	6078      	str	r0, [r7, #4]
 8000c3c:	6039      	str	r1, [r7, #0]
 8000c3e:	2300      	movs	r3, #0
 8000c40:	617b      	str	r3, [r7, #20]
 8000c42:	2300      	movs	r3, #0
 8000c44:	613b      	str	r3, [r7, #16]
 8000c46:	2300      	movs	r3, #0
 8000c48:	61bb      	str	r3, [r7, #24]
 8000c4a:	2300      	movs	r3, #0
 8000c4c:	61fb      	str	r3, [r7, #28]
 8000c4e:	e159      	b.n	8000f04 <HAL_GPIO_Init+0x2d0>
 8000c50:	2201      	movs	r2, #1
 8000c52:	69fb      	ldr	r3, [r7, #28]
 8000c54:	fa02 f303 	lsl.w	r3, r2, r3
 8000c58:	617b      	str	r3, [r7, #20]
 8000c5a:	683b      	ldr	r3, [r7, #0]
 8000c5c:	681b      	ldr	r3, [r3, #0]
 8000c5e:	697a      	ldr	r2, [r7, #20]
 8000c60:	4013      	ands	r3, r2
 8000c62:	613b      	str	r3, [r7, #16]
 8000c64:	693a      	ldr	r2, [r7, #16]
 8000c66:	697b      	ldr	r3, [r7, #20]
 8000c68:	429a      	cmp	r2, r3
 8000c6a:	f040 8148 	bne.w	8000efe <HAL_GPIO_Init+0x2ca>
 8000c6e:	683b      	ldr	r3, [r7, #0]
 8000c70:	685b      	ldr	r3, [r3, #4]
 8000c72:	f003 0303 	and.w	r3, r3, #3
 8000c76:	2b01      	cmp	r3, #1
 8000c78:	d005      	beq.n	8000c86 <HAL_GPIO_Init+0x52>
 8000c7a:	683b      	ldr	r3, [r7, #0]
 8000c7c:	685b      	ldr	r3, [r3, #4]
 8000c7e:	f003 0303 	and.w	r3, r3, #3
 8000c82:	2b02      	cmp	r3, #2
 8000c84:	d130      	bne.n	8000ce8 <HAL_GPIO_Init+0xb4>
 8000c86:	687b      	ldr	r3, [r7, #4]
 8000c88:	689b      	ldr	r3, [r3, #8]
 8000c8a:	61bb      	str	r3, [r7, #24]
 8000c8c:	69fb      	ldr	r3, [r7, #28]
 8000c8e:	005b      	lsls	r3, r3, #1
 8000c90:	2203      	movs	r2, #3
 8000c92:	fa02 f303 	lsl.w	r3, r2, r3
 8000c96:	43db      	mvns	r3, r3
 8000c98:	69ba      	ldr	r2, [r7, #24]
 8000c9a:	4013      	ands	r3, r2
 8000c9c:	61bb      	str	r3, [r7, #24]
 8000c9e:	683b      	ldr	r3, [r7, #0]
 8000ca0:	68da      	ldr	r2, [r3, #12]
 8000ca2:	69fb      	ldr	r3, [r7, #28]
 8000ca4:	005b      	lsls	r3, r3, #1
 8000ca6:	fa02 f303 	lsl.w	r3, r2, r3
 8000caa:	69ba      	ldr	r2, [r7, #24]
 8000cac:	4313      	orrs	r3, r2
 8000cae:	61bb      	str	r3, [r7, #24]
 8000cb0:	687b      	ldr	r3, [r7, #4]
 8000cb2:	69ba      	ldr	r2, [r7, #24]
 8000cb4:	609a      	str	r2, [r3, #8]
 8000cb6:	687b      	ldr	r3, [r7, #4]
 8000cb8:	685b      	ldr	r3, [r3, #4]
 8000cba:	61bb      	str	r3, [r7, #24]
 8000cbc:	2201      	movs	r2, #1
 8000cbe:	69fb      	ldr	r3, [r7, #28]
 8000cc0:	fa02 f303 	lsl.w	r3, r2, r3
 8000cc4:	43db      	mvns	r3, r3
 8000cc6:	69ba      	ldr	r2, [r7, #24]
 8000cc8:	4013      	ands	r3, r2
 8000cca:	61bb      	str	r3, [r7, #24]
 8000ccc:	683b      	ldr	r3, [r7, #0]
 8000cce:	685b      	ldr	r3, [r3, #4]
 8000cd0:	091b      	lsrs	r3, r3, #4
 8000cd2:	f003 0201 	and.w	r2, r3, #1
 8000cd6:	69fb      	ldr	r3, [r7, #28]
 8000cd8:	fa02 f303 	lsl.w	r3, r2, r3
 8000cdc:	69ba      	ldr	r2, [r7, #24]
 8000cde:	4313      	orrs	r3, r2
 8000ce0:	61bb      	str	r3, [r7, #24]
 8000ce2:	687b      	ldr	r3, [r7, #4]
 8000ce4:	69ba      	ldr	r2, [r7, #24]
 8000ce6:	605a      	str	r2, [r3, #4]
 8000ce8:	683b      	ldr	r3, [r7, #0]
 8000cea:	685b      	ldr	r3, [r3, #4]
 8000cec:	f003 0303 	and.w	r3, r3, #3
 8000cf0:	2b03      	cmp	r3, #3
 8000cf2:	d017      	beq.n	8000d24 <HAL_GPIO_Init+0xf0>
 8000cf4:	687b      	ldr	r3, [r7, #4]
 8000cf6:	68db      	ldr	r3, [r3, #12]
 8000cf8:	61bb      	str	r3, [r7, #24]
 8000cfa:	69fb      	ldr	r3, [r7, #28]
 8000cfc:	005b      	lsls	r3, r3, #1
 8000cfe:	2203      	movs	r2, #3
 8000d00:	fa02 f303 	lsl.w	r3, r2, r3
 8000d04:	43db      	mvns	r3, r3
 8000d06:	69ba      	ldr	r2, [r7, #24]
 8000d08:	4013      	ands	r3, r2
 8000d0a:	61bb      	str	r3, [r7, #24]
 8000d0c:	683b      	ldr	r3, [r7, #0]
 8000d0e:	689a      	ldr	r2, [r3, #8]
 8000d10:	69fb      	ldr	r3, [r7, #28]
 8000d12:	005b      	lsls	r3, r3, #1
 8000d14:	fa02 f303 	lsl.w	r3, r2, r3
 8000d18:	69ba      	ldr	r2, [r7, #24]
 8000d1a:	4313      	orrs	r3, r2
 8000d1c:	61bb      	str	r3, [r7, #24]
 8000d1e:	687b      	ldr	r3, [r7, #4]
 8000d20:	69ba      	ldr	r2, [r7, #24]
 8000d22:	60da      	str	r2, [r3, #12]
 8000d24:	683b      	ldr	r3, [r7, #0]
 8000d26:	685b      	ldr	r3, [r3, #4]
 8000d28:	f003 0303 	and.w	r3, r3, #3
 8000d2c:	2b02      	cmp	r3, #2
 8000d2e:	d123      	bne.n	8000d78 <HAL_GPIO_Init+0x144>
 8000d30:	69fb      	ldr	r3, [r7, #28]
 8000d32:	08da      	lsrs	r2, r3, #3
 8000d34:	687b      	ldr	r3, [r7, #4]
 8000d36:	3208      	adds	r2, #8
 8000d38:	f853 3022 	ldr.w	r3, [r3, r2, lsl #2]
 8000d3c:	61bb      	str	r3, [r7, #24]
 8000d3e:	69fb      	ldr	r3, [r7, #28]
 8000d40:	f003 0307 	and.w	r3, r3, #7
 8000d44:	009b      	lsls	r3, r3, #2
 8000d46:	220f      	movs	r2, #15
 8000d48:	fa02 f303 	lsl.w	r3, r2, r3
 8000d4c:	43db      	mvns	r3, r3
 8000d4e:	69ba      	ldr	r2, [r7, #24]
 8000d50:	4013      	ands	r3, r2
 8000d52:	61bb      	str	r3, [r7, #24]
 8000d54:	683b      	ldr	r3, [r7, #0]
 8000d56:	691a      	ldr	r2, [r3, #16]
 8000d58:	69fb      	ldr	r3, [r7, #28]
 8000d5a:	f003 0307 	and.w	r3, r3, #7
 8000d5e:	009b      	lsls	r3, r3, #2
 8000d60:	fa02 f303 	lsl.w	r3, r2, r3
 8000d64:	69ba      	ldr	r2, [r7, #24]
 8000d66:	4313      	orrs	r3, r2
 8000d68:	61bb      	str	r3, [r7, #24]
 8000d6a:	69fb      	ldr	r3, [r7, #28]
 8000d6c:	08da      	lsrs	r2, r3, #3
 8000d6e:	687b      	ldr	r3, [r7, #4]
 8000d70:	3208      	adds	r2, #8
 8000d72:	69b9      	ldr	r1, [r7, #24]
 8000d74:	f843 1022 	str.w	r1, [r3, r2, lsl #2]
 8000d78:	687b      	ldr	r3, [r7, #4]
 8000d7a:	681b      	ldr	r3, [r3, #0]
 8000d7c:	61bb      	str	r3, [r7, #24]
 8000d7e:	69fb      	ldr	r3, [r7, #28]
 8000d80:	005b      	lsls	r3, r3, #1
 8000d82:	2203      	movs	r2, #3
 8000d84:	fa02 f303 	lsl.w	r3, r2, r3
 8000d88:	43db      	mvns	r3, r3
 8000d8a:	69ba      	ldr	r2, [r7, #24]
 8000d8c:	4013      	ands	r3, r2
 8000d8e:	61bb      	str	r3, [r7, #24]
 8000d90:	683b      	ldr	r3, [r7, #0]
 8000d92:	685b      	ldr	r3, [r3, #4]
 8000d94:	f003 0203 	and.w	r2, r3, #3
 8000d98:	69fb      	ldr	r3, [r7, #28]
 8000d9a:	005b      	lsls	r3, r3, #1
 8000d9c:	fa02 f303 	lsl.w	r3, r2, r3
 8000da0:	69ba      	ldr	r2, [r7, #24]
 8000da2:	4313      	orrs	r3, r2
 8000da4:	61bb      	str	r3, [r7, #24]
 8000da6:	687b      	ldr	r3, [r7, #4]
 8000da8:	69ba      	ldr	r2, [r7, #24]
 8000daa:	601a      	str	r2, [r3, #0]
 8000dac:	683b      	ldr	r3, [r7, #0]
 8000dae:	685b      	ldr	r3, [r3, #4]
 8000db0:	f403 3340 	and.w	r3, r3, #196608	@ 0x30000
 8000db4:	2b00      	cmp	r3, #0
 8000db6:	f000 80a2 	beq.w	8000efe <HAL_GPIO_Init+0x2ca>
 8000dba:	2300      	movs	r3, #0
 8000dbc:	60fb      	str	r3, [r7, #12]
 8000dbe:	4b57      	ldr	r3, [pc, #348]	@ (8000f1c <HAL_GPIO_Init+0x2e8>)
 8000dc0:	6c5b      	ldr	r3, [r3, #68]	@ 0x44
 8000dc2:	4a56      	ldr	r2, [pc, #344]	@ (8000f1c <HAL_GPIO_Init+0x2e8>)
 8000dc4:	f443 4380 	orr.w	r3, r3, #16384	@ 0x4000
 8000dc8:	6453      	str	r3, [r2, #68]	@ 0x44
 8000dca:	4b54      	ldr	r3, [pc, #336]	@ (8000f1c <HAL_GPIO_Init+0x2e8>)
 8000dcc:	6c5b      	ldr	r3, [r3, #68]	@ 0x44
 8000dce:	f403 4380 	and.w	r3, r3, #16384	@ 0x4000
 8000dd2:	60fb      	str	r3, [r7, #12]
 8000dd4:	68fb      	ldr	r3, [r7, #12]
 8000dd6:	4a52      	ldr	r2, [pc, #328]	@ (8000f20 <HAL_GPIO_Init+0x2ec>)
 8000dd8:	69fb      	ldr	r3, [r7, #28]
 8000dda:	089b      	lsrs	r3, r3, #2
 8000ddc:	3302      	adds	r3, #2
 8000dde:	f852 3023 	ldr.w	r3, [r2, r3, lsl #2]
 8000de2:	61bb      	str	r3, [r7, #24]
 8000de4:	69fb      	ldr	r3, [r7, #28]
 8000de6:	f003 0303 	and.w	r3, r3, #3
 8000dea:	009b      	lsls	r3, r3, #2
 8000dec:	220f      	movs	r2, #15
 8000dee:	fa02 f303 	lsl.w	r3, r2, r3
 8000df2:	43db      	mvns	r3, r3
 8000df4:	69ba      	ldr	r2, [r7, #24]
 8000df6:	4013      	ands	r3, r2
 8000df8:	61bb      	str	r3, [r7, #24]
 8000dfa:	687b      	ldr	r3, [r7, #4]
 8000dfc:	4a49      	ldr	r2, [pc, #292]	@ (8000f24 <HAL_GPIO_Init+0x2f0>)
 8000dfe:	4293      	cmp	r3, r2
 8000e00:	d019      	beq.n	8000e36 <HAL_GPIO_Init+0x202>
 8000e02:	687b      	ldr	r3, [r7, #4]
 8000e04:	4a48      	ldr	r2, [pc, #288]	@ (8000f28 <HAL_GPIO_Init+0x2f4>)
 8000e06:	4293      	cmp	r3, r2
 8000e08:	d013      	beq.n	8000e32 <HAL_GPIO_Init+0x1fe>
 8000e0a:	687b      	ldr	r3, [r7, #4]
 8000e0c:	4a47      	ldr	r2, [pc, #284]	@ (8000f2c <HAL_GPIO_Init+0x2f8>)
 8000e0e:	4293      	cmp	r3, r2
 8000e10:	d00d      	beq.n	8000e2e <HAL_GPIO_Init+0x1fa>
 8000e12:	687b      	ldr	r3, [r7, #4]
 8000e14:	4a46      	ldr	r2, [pc, #280]	@ (8000f30 <HAL_GPIO_Init+0x2fc>)
 8000e16:	4293      	cmp	r3, r2
 8000e18:	d007      	beq.n	8000e2a <HAL_GPIO_Init+0x1f6>
 8000e1a:	687b      	ldr	r3, [r7, #4]
 8000e1c:	4a45      	ldr	r2, [pc, #276]	@ (8000f34 <HAL_GPIO_Init+0x300>)
 8000e1e:	4293      	cmp	r3, r2
 8000e20:	d101      	bne.n	8000e26 <HAL_GPIO_Init+0x1f2>
 8000e22:	2304      	movs	r3, #4
 8000e24:	e008      	b.n	8000e38 <HAL_GPIO_Init+0x204>
 8000e26:	2307      	movs	r3, #7
 8000e28:	e006      	b.n	8000e38 <HAL_GPIO_Init+0x204>
 8000e2a:	2303      	movs	r3, #3
 8000e2c:	e004      	b.n	8000e38 <HAL_GPIO_Init+0x204>
 8000e2e:	2302      	movs	r3, #2
 8000e30:	e002      	b.n	8000e38 <HAL_GPIO_Init+0x204>
 8000e32:	2301      	movs	r3, #1
 8000e34:	e000      	b.n	8000e38 <HAL_GPIO_Init+0x204>
 8000e36:	2300      	movs	r3, #0
 8000e38:	69fa      	ldr	r2, [r7, #28]
 8000e3a:	f002 0203 	and.w	r2, r2, #3
 8000e3e:	0092      	lsls	r2, r2, #2
 8000e40:	4093      	lsls	r3, r2
 8000e42:	69ba      	ldr	r2, [r7, #24]
 8000e44:	4313      	orrs	r3, r2
 8000e46:	61bb      	str	r3, [r7, #24]
 8000e48:	4935      	ldr	r1, [pc, #212]	@ (8000f20 <HAL_GPIO_Init+0x2ec>)
 8000e4a:	69fb      	ldr	r3, [r7, #28]
 8000e4c:	089b      	lsrs	r3, r3, #2
 8000e4e:	3302      	adds	r3, #2
 8000e50:	69ba      	ldr	r2, [r7, #24]
 8000e52:	f841 2023 	str.w	r2, [r1, r3, lsl #2]
 8000e56:	4b38      	ldr	r3, [pc, #224]	@ (8000f38 <HAL_GPIO_Init+0x304>)
 8000e58:	689b      	ldr	r3, [r3, #8]
 8000e5a:	61bb      	str	r3, [r7, #24]
 8000e5c:	693b      	ldr	r3, [r7, #16]
 8000e5e:	43db      	mvns	r3, r3
 8000e60:	69ba      	ldr	r2, [r7, #24]
 8000e62:	4013      	ands	r3, r2
 8000e64:	61bb      	str	r3, [r7, #24]
 8000e66:	683b      	ldr	r3, [r7, #0]
 8000e68:	685b      	ldr	r3, [r3, #4]
 8000e6a:	f403 1380 	and.w	r3, r3, #1048576	@ 0x100000
 8000e6e:	2b00      	cmp	r3, #0
 8000e70:	d003      	beq.n	8000e7a <HAL_GPIO_Init+0x246>
 8000e72:	69ba      	ldr	r2, [r7, #24]
 8000e74:	693b      	ldr	r3, [r7, #16]
 8000e76:	4313      	orrs	r3, r2
 8000e78:	61bb      	str	r3, [r7, #24]
 8000e7a:	4a2f      	ldr	r2, [pc, #188]	@ (8000f38 <HAL_GPIO_Init+0x304>)
 8000e7c:	69bb      	ldr	r3, [r7, #24]
 8000e7e:	6093      	str	r3, [r2, #8]
 8000e80:	4b2d      	ldr	r3, [pc, #180]	@ (8000f38 <HAL_GPIO_Init+0x304>)
 8000e82:	68db      	ldr	r3, [r3, #12]
 8000e84:	61bb      	str	r3, [r7, #24]
 8000e86:	693b      	ldr	r3, [r7, #16]
 8000e88:	43db      	mvns	r3, r3
 8000e8a:	69ba      	ldr	r2, [r7, #24]
 8000e8c:	4013      	ands	r3, r2
 8000e8e:	61bb      	str	r3, [r7, #24]
 8000e90:	683b      	ldr	r3, [r7, #0]
 8000e92:	685b      	ldr	r3, [r3, #4]
 8000e94:	f403 1300 	and.w	r3, r3, #2097152	@ 0x200000
 8000e98:	2b00      	cmp	r3, #0
 8000e9a:	d003      	beq.n	8000ea4 <HAL_GPIO_Init+0x270>
 8000e9c:	69ba      	ldr	r2, [r7, #24]
 8000e9e:	693b      	ldr	r3, [r7, #16]
 8000ea0:	4313      	orrs	r3, r2
 8000ea2:	61bb      	str	r3, [r7, #24]
 8000ea4:	4a24      	ldr	r2, [pc, #144]	@ (8000f38 <HAL_GPIO_Init+0x304>)
 8000ea6:	69bb      	ldr	r3, [r7, #24]
 8000ea8:	60d3      	str	r3, [r2, #12]
 8000eaa:	4b23      	ldr	r3, [pc, #140]	@ (8000f38 <HAL_GPIO_Init+0x304>)
 8000eac:	685b      	ldr	r3, [r3, #4]
 8000eae:	61bb      	str	r3, [r7, #24]
 8000eb0:	693b      	ldr	r3, [r7, #16]
 8000eb2:	43db      	mvns	r3, r3
 8000eb4:	69ba      	ldr	r2, [r7, #24]
 8000eb6:	4013      	ands	r3, r2
 8000eb8:	61bb      	str	r3, [r7, #24]
 8000eba:	683b      	ldr	r3, [r7, #0]
 8000ebc:	685b      	ldr	r3, [r3, #4]
 8000ebe:	f403 3300 	and.w	r3, r3, #131072	@ 0x20000
 8000ec2:	2b00      	cmp	r3, #0
 8000ec4:	d003      	beq.n	8000ece <HAL_GPIO_Init+0x29a>
 8000ec6:	69ba      	ldr	r2, [r7, #24]
 8000ec8:	693b      	ldr	r3, [r7, #16]
 8000eca:	4313      	orrs	r3, r2
 8000ecc:	61bb      	str	r3, [r7, #24]
 8000ece:	4a1a      	ldr	r2, [pc, #104]	@ (8000f38 <HAL_GPIO_Init+0x304>)
 8000ed0:	69bb      	ldr	r3, [r7, #24]
 8000ed2:	6053      	str	r3, [r2, #4]
 8000ed4:	4b18      	ldr	r3, [pc, #96]	@ (8000f38 <HAL_GPIO_Init+0x304>)
 8000ed6:	681b      	ldr	r3, [r3, #0]
 8000ed8:	61bb      	str	r3, [r7, #24]
 8000eda:	693b      	ldr	r3, [r7, #16]
 8000edc:	43db      	mvns	r3, r3
 8000ede:	69ba      	ldr	r2, [r7, #24]
 8000ee0:	4013      	ands	r3, r2
 8000ee2:	61bb      	str	r3, [r7, #24]
 8000ee4:	683b      	ldr	r3, [r7, #0]
 8000ee6:	685b      	ldr	r3, [r3, #4]
 8000ee8:	f403 3380 	and.w	r3, r3, #65536	@ 0x10000
 8000eec:	2b00      	cmp	r3, #0
 8000eee:	d003      	beq.n	8000ef8 <HAL_GPIO_Init+0x2c4>
 8000ef0:	69ba      	ldr	r2, [r7, #24]
 8000ef2:	693b      	ldr	r3, [r7, #16]
 8000ef4:	4313      	orrs	r3, r2
 8000ef6:	61bb      	str	r3, [r7, #24]
 8000ef8:	4a0f      	ldr	r2, [pc, #60]	@ (8000f38 <HAL_GPIO_Init+0x304>)
 8000efa:	69bb      	ldr	r3, [r7, #24]
 8000efc:	6013      	str	r3, [r2, #0]
 8000efe:	69fb      	ldr	r3, [r7, #28]
 8000f00:	3301      	adds	r3, #1
 8000f02:	61fb      	str	r3, [r7, #28]
 8000f04:	69fb      	ldr	r3, [r7, #28]
 8000f06:	2b0f      	cmp	r3, #15
 8000f08:	f67f aea2 	bls.w	8000c50 <HAL_GPIO_Init+0x1c>
 8000f0c:	bf00      	nop
 8000f0e:	bf00      	nop
 8000f10:	3724      	adds	r7, #36	@ 0x24
 8000f12:	46bd      	mov	sp, r7
 8000f14:	f85d 7b04 	ldr.w	r7, [sp], #4
 8000f18:	4770      	bx	lr
 8000f1a:	bf00      	nop
 8000f1c:	40023800 	.word	0x40023800
 8000f20:	40013800 	.word	0x40013800
 8000f24:	40020000 	.word	0x40020000
 8000f28:	40020400 	.word	0x40020400
 8000f2c:	40020800 	.word	0x40020800
 8000f30:	40020c00 	.word	0x40020c00
 8000f34:	40021000 	.word	0x40021000
 8000f38:	40013c00 	.word	0x40013c00

08000f3c <HAL_GPIO_WritePin>:
 8000f3c:	b480      	push	{r7}
 8000f3e:	b083      	sub	sp, #12
 8000f40:	af00      	add	r7, sp, #0
 8000f42:	6078      	str	r0, [r7, #4]
 8000f44:	460b      	mov	r3, r1
 8000f46:	807b      	strh	r3, [r7, #2]
 8000f48:	4613      	mov	r3, r2
 8000f4a:	707b      	strb	r3, [r7, #1]
 8000f4c:	787b      	ldrb	r3, [r7, #1]
 8000f4e:	2b00      	cmp	r3, #0
 8000f50:	d003      	beq.n	8000f5a <HAL_GPIO_WritePin+0x1e>
 8000f52:	887a      	ldrh	r2, [r7, #2]
 8000f54:	687b      	ldr	r3, [r7, #4]
 8000f56:	619a      	str	r2, [r3, #24]
 8000f58:	e003      	b.n	8000f62 <HAL_GPIO_WritePin+0x26>
 8000f5a:	887b      	ldrh	r3, [r7, #2]
 8000f5c:	041a      	lsls	r2, r3, #16
 8000f5e:	687b      	ldr	r3, [r7, #4]
 8000f60:	619a      	str	r2, [r3, #24]
 8000f62:	bf00      	nop
 8000f64:	370c      	adds	r7, #12
 8000f66:	46bd      	mov	sp, r7
 8000f68:	f85d 7b04 	ldr.w	r7, [sp], #4
 8000f6c:	4770      	bx	lr
	...

08000f70 <HAL_RCC_OscConfig>:
 8000f70:	b580      	push	{r7, lr}
 8000f72:	b086      	sub	sp, #24
 8000f74:	af00      	add	r7, sp, #0
 8000f76:	6078      	str	r0, [r7, #4]
 8000f78:	687b      	ldr	r3, [r7, #4]
 8000f7a:	2b00      	cmp	r3, #0
 8000f7c:	d101      	bne.n	8000f82 <HAL_RCC_OscConfig+0x12>
 8000f7e:	2301      	movs	r3, #1
 8000f80:	e267      	b.n	8001452 <HAL_RCC_OscConfig+0x4e2>
 8000f82:	687b      	ldr	r3, [r7, #4]
 8000f84:	681b      	ldr	r3, [r3, #0]
 8000f86:	f003 0301 	and.w	r3, r3, #1
 8000f8a:	2b00      	cmp	r3, #0
 8000f8c:	d075      	beq.n	800107a <HAL_RCC_OscConfig+0x10a>
 8000f8e:	4b88      	ldr	r3, [pc, #544]	@ (80011b0 <HAL_RCC_OscConfig+0x240>)
 8000f90:	689b      	ldr	r3, [r3, #8]
 8000f92:	f003 030c 	and.w	r3, r3, #12
 8000f96:	2b04      	cmp	r3, #4
 8000f98:	d00c      	beq.n	8000fb4 <HAL_RCC_OscConfig+0x44>
 8000f9a:	4b85      	ldr	r3, [pc, #532]	@ (80011b0 <HAL_RCC_OscConfig+0x240>)
 8000f9c:	689b      	ldr	r3, [r3, #8]
 8000f9e:	f003 030c 	and.w	r3, r3, #12
 8000fa2:	2b08      	cmp	r3, #8
 8000fa4:	d112      	bne.n	8000fcc <HAL_RCC_OscConfig+0x5c>
 8000fa6:	4b82      	ldr	r3, [pc, #520]	@ (80011b0 <HAL_RCC_OscConfig+0x240>)
 8000fa8:	685b      	ldr	r3, [r3, #4]
 8000faa:	f403 0380 	and.w	r3, r3, #4194304	@ 0x400000
 8000fae:	f5b3 0f80 	cmp.w	r3, #4194304	@ 0x400000
 8000fb2:	d10b      	bne.n	8000fcc <HAL_RCC_OscConfig+0x5c>
 8000fb4:	4b7e      	ldr	r3, [pc, #504]	@ (80011b0 <HAL_RCC_OscConfig+0x240>)
 8000fb6:	681b      	ldr	r3, [r3, #0]
 8000fb8:	f403 3300 	and.w	r3, r3, #131072	@ 0x20000
 8000fbc:	2b00      	cmp	r3, #0
 8000fbe:	d05b      	beq.n	8001078 <HAL_RCC_OscConfig+0x108>
 8000fc0:	687b      	ldr	r3, [r7, #4]
 8000fc2:	685b      	ldr	r3, [r3, #4]
 8000fc4:	2b00      	cmp	r3, #0
 8000fc6:	d157      	bne.n	8001078 <HAL_RCC_OscConfig+0x108>
 8000fc8:	2301      	movs	r3, #1
 8000fca:	e242      	b.n	8001452 <HAL_RCC_OscConfig+0x4e2>
 8000fcc:	687b      	ldr	r3, [r7, #4]
 8000fce:	685b      	ldr	r3, [r3, #4]
 8000fd0:	f5b3 3f80 	cmp.w	r3, #65536	@ 0x10000
 8000fd4:	d106      	bne.n	8000fe4 <HAL_RCC_OscConfig+0x74>
 8000fd6:	4b76      	ldr	r3, [pc, #472]	@ (80011b0 <HAL_RCC_OscConfig+0x240>)
 8000fd8:	681b      	ldr	r3, [r3, #0]
 8000fda:	4a75      	ldr	r2, [pc, #468]	@ (80011b0 <HAL_RCC_OscConfig+0x240>)
 8000fdc:	f443 3380 	orr.w	r3, r3, #65536	@ 0x10000
 8000fe0:	6013      	str	r3, [r2, #0]
 8000fe2:	e01d      	b.n	8001020 <HAL_RCC_OscConfig+0xb0>
 8000fe4:	687b      	ldr	r3, [r7, #4]
 8000fe6:	685b      	ldr	r3, [r3, #4]
 8000fe8:	f5b3 2fa0 	cmp.w	r3, #327680	@ 0x50000
 8000fec:	d10c      	bne.n	8001008 <HAL_RCC_OscConfig+0x98>
 8000fee:	4b70      	ldr	r3, [pc, #448]	@ (80011b0 <HAL_RCC_OscConfig+0x240>)
 8000ff0:	681b      	ldr	r3, [r3, #0]
 8000ff2:	4a6f      	ldr	r2, [pc, #444]	@ (80011b0 <HAL_RCC_OscConfig+0x240>)
 8000ff4:	f443 2380 	orr.w	r3, r3, #262144	@ 0x40000
 8000ff8:	6013      	str	r3, [r2, #0]
 8000ffa:	4b6d      	ldr	r3, [pc, #436]	@ (80011b0 <HAL_RCC_OscConfig+0x240>)
 8000ffc:	681b      	ldr	r3, [r3, #0]
 8000ffe:	4a6c      	ldr	r2, [pc, #432]	@ (80011b0 <HAL_RCC_OscConfig+0x240>)
 8001000:	f443 3380 	orr.w	r3, r3, #65536	@ 0x10000
 8001004:	6013      	str	r3, [r2, #0]
 8001006:	e00b      	b.n	8001020 <HAL_RCC_OscConfig+0xb0>
 8001008:	4b69      	ldr	r3, [pc, #420]	@ (80011b0 <HAL_RCC_OscConfig+0x240>)
 800100a:	681b      	ldr	r3, [r3, #0]
 800100c:	4a68      	ldr	r2, [pc, #416]	@ (80011b0 <HAL_RCC_OscConfig+0x240>)
 800100e:	f423 3380 	bic.w	r3, r3, #65536	@ 0x10000
 8001012:	6013      	str	r3, [r2, #0]
 8001014:	4b66      	ldr	r3, [pc, #408]	@ (80011b0 <HAL_RCC_OscConfig+0x240>)
 8001016:	681b      	ldr	r3, [r3, #0]
 8001018:	4a65      	ldr	r2, [pc, #404]	@ (80011b0 <HAL_RCC_OscConfig+0x240>)
 800101a:	f423 2380 	bic.w	r3, r3, #262144	@ 0x40000
 800101e:	6013      	str	r3, [r2, #0]
 8001020:	687b      	ldr	r3, [r7, #4]
 8001022:	685b      	ldr	r3, [r3, #4]
 8001024:	2b00      	cmp	r3, #0
 8001026:	d013      	beq.n	8001050 <HAL_RCC_OscConfig+0xe0>
 8001028:	f7ff fd16 	bl	8000a58 <HAL_GetTick>
 800102c:	6138      	str	r0, [r7, #16]
 800102e:	e008      	b.n	8001042 <HAL_RCC_OscConfig+0xd2>
 8001030:	f7ff fd12 	bl	8000a58 <HAL_GetTick>
 8001034:	4602      	mov	r2, r0
 8001036:	693b      	ldr	r3, [r7, #16]
 8001038:	1ad3      	subs	r3, r2, r3
 800103a:	2b64      	cmp	r3, #100	@ 0x64
 800103c:	d901      	bls.n	8001042 <HAL_RCC_OscConfig+0xd2>
 800103e:	2303      	movs	r3, #3
 8001040:	e207      	b.n	8001452 <HAL_RCC_OscConfig+0x4e2>
 8001042:	4b5b      	ldr	r3, [pc, #364]	@ (80011b0 <HAL_RCC_OscConfig+0x240>)
 8001044:	681b      	ldr	r3, [r3, #0]
 8001046:	f403 3300 	and.w	r3, r3, #131072	@ 0x20000
 800104a:	2b00      	cmp	r3, #0
 800104c:	d0f0      	beq.n	8001030 <HAL_RCC_OscConfig+0xc0>
 800104e:	e014      	b.n	800107a <HAL_RCC_OscConfig+0x10a>
 8001050:	f7ff fd02 	bl	8000a58 <HAL_GetTick>
 8001054:	6138      	str	r0, [r7, #16]
 8001056:	e008      	b.n	800106a <HAL_RCC_OscConfig+0xfa>
 8001058:	f7ff fcfe 	bl	8000a58 <HAL_GetTick>
 800105c:	4602      	mov	r2, r0
 800105e:	693b      	ldr	r3, [r7, #16]
 8001060:	1ad3      	subs	r3, r2, r3
 8001062:	2b64      	cmp	r3, #100	@ 0x64
 8001064:	d901      	bls.n	800106a <HAL_RCC_OscConfig+0xfa>
 8001066:	2303      	movs	r3, #3
 8001068:	e1f3      	b.n	8001452 <HAL_RCC_OscConfig+0x4e2>
 800106a:	4b51      	ldr	r3, [pc, #324]	@ (80011b0 <HAL_RCC_OscConfig+0x240>)
 800106c:	681b      	ldr	r3, [r3, #0]
 800106e:	f403 3300 	and.w	r3, r3, #131072	@ 0x20000
 8001072:	2b00      	cmp	r3, #0
 8001074:	d1f0      	bne.n	8001058 <HAL_RCC_OscConfig+0xe8>
 8001076:	e000      	b.n	800107a <HAL_RCC_OscConfig+0x10a>
 8001078:	bf00      	nop
 800107a:	687b      	ldr	r3, [r7, #4]
 800107c:	681b      	ldr	r3, [r3, #0]
 800107e:	f003 0302 	and.w	r3, r3, #2
 8001082:	2b00      	cmp	r3, #0
 8001084:	d063      	beq.n	800114e <HAL_RCC_OscConfig+0x1de>
 8001086:	4b4a      	ldr	r3, [pc, #296]	@ (80011b0 <HAL_RCC_OscConfig+0x240>)
 8001088:	689b      	ldr	r3, [r3, #8]
 800108a:	f003 030c 	and.w	r3, r3, #12
 800108e:	2b00      	cmp	r3, #0
 8001090:	d00b      	beq.n	80010aa <HAL_RCC_OscConfig+0x13a>
 8001092:	4b47      	ldr	r3, [pc, #284]	@ (80011b0 <HAL_RCC_OscConfig+0x240>)
 8001094:	689b      	ldr	r3, [r3, #8]
 8001096:	f003 030c 	and.w	r3, r3, #12
 800109a:	2b08      	cmp	r3, #8
 800109c:	d11c      	bne.n	80010d8 <HAL_RCC_OscConfig+0x168>
 800109e:	4b44      	ldr	r3, [pc, #272]	@ (80011b0 <HAL_RCC_OscConfig+0x240>)
 80010a0:	685b      	ldr	r3, [r3, #4]
 80010a2:	f403 0380 	and.w	r3, r3, #4194304	@ 0x400000
 80010a6:	2b00      	cmp	r3, #0
 80010a8:	d116      	bne.n	80010d8 <HAL_RCC_OscConfig+0x168>
 80010aa:	4b41      	ldr	r3, [pc, #260]	@ (80011b0 <HAL_RCC_OscConfig+0x240>)
 80010ac:	681b      	ldr	r3, [r3, #0]
 80010ae:	f003 0302 	and.w	r3, r3, #2
 80010b2:	2b00      	cmp	r3, #0
 80010b4:	d005      	beq.n	80010c2 <HAL_RCC_OscConfig+0x152>
 80010b6:	687b      	ldr	r3, [r7, #4]
 80010b8:	68db      	ldr	r3, [r3, #12]
 80010ba:	2b01      	cmp	r3, #1
 80010bc:	d001      	beq.n	80010c2 <HAL_RCC_OscConfig+0x152>
 80010be:	2301      	movs	r3, #1
 80010c0:	e1c7      	b.n	8001452 <HAL_RCC_OscConfig+0x4e2>
 80010c2:	4b3b      	ldr	r3, [pc, #236]	@ (80011b0 <HAL_RCC_OscConfig+0x240>)
 80010c4:	681b      	ldr	r3, [r3, #0]
 80010c6:	f023 02f8 	bic.w	r2, r3, #248	@ 0xf8
 80010ca:	687b      	ldr	r3, [r7, #4]
 80010cc:	691b      	ldr	r3, [r3, #16]
 80010ce:	00db      	lsls	r3, r3, #3
 80010d0:	4937      	ldr	r1, [pc, #220]	@ (80011b0 <HAL_RCC_OscConfig+0x240>)
 80010d2:	4313      	orrs	r3, r2
 80010d4:	600b      	str	r3, [r1, #0]
 80010d6:	e03a      	b.n	800114e <HAL_RCC_OscConfig+0x1de>
 80010d8:	687b      	ldr	r3, [r7, #4]
 80010da:	68db      	ldr	r3, [r3, #12]
 80010dc:	2b00      	cmp	r3, #0
 80010de:	d020      	beq.n	8001122 <HAL_RCC_OscConfig+0x1b2>
 80010e0:	4b34      	ldr	r3, [pc, #208]	@ (80011b4 <HAL_RCC_OscConfig+0x244>)
 80010e2:	2201      	movs	r2, #1
 80010e4:	601a      	str	r2, [r3, #0]
 80010e6:	f7ff fcb7 	bl	8000a58 <HAL_GetTick>
 80010ea:	6138      	str	r0, [r7, #16]
 80010ec:	e008      	b.n	8001100 <HAL_RCC_OscConfig+0x190>
 80010ee:	f7ff fcb3 	bl	8000a58 <HAL_GetTick>
 80010f2:	4602      	mov	r2, r0
 80010f4:	693b      	ldr	r3, [r7, #16]
 80010f6:	1ad3      	subs	r3, r2, r3
 80010f8:	2b02      	cmp	r3, #2
 80010fa:	d901      	bls.n	8001100 <HAL_RCC_OscConfig+0x190>
 80010fc:	2303      	movs	r3, #3
 80010fe:	e1a8      	b.n	8001452 <HAL_RCC_OscConfig+0x4e2>
 8001100:	4b2b      	ldr	r3, [pc, #172]	@ (80011b0 <HAL_RCC_OscConfig+0x240>)
 8001102:	681b      	ldr	r3, [r3, #0]
 8001104:	f003 0302 	and.w	r3, r3, #2
 8001108:	2b00      	cmp	r3, #0
 800110a:	d0f0      	beq.n	80010ee <HAL_RCC_OscConfig+0x17e>
 800110c:	4b28      	ldr	r3, [pc, #160]	@ (80011b0 <HAL_RCC_OscConfig+0x240>)
 800110e:	681b      	ldr	r3, [r3, #0]
 8001110:	f023 02f8 	bic.w	r2, r3, #248	@ 0xf8
 8001114:	687b      	ldr	r3, [r7, #4]
 8001116:	691b      	ldr	r3, [r3, #16]
 8001118:	00db      	lsls	r3, r3, #3
 800111a:	4925      	ldr	r1, [pc, #148]	@ (80011b0 <HAL_RCC_OscConfig+0x240>)
 800111c:	4313      	orrs	r3, r2
 800111e:	600b      	str	r3, [r1, #0]
 8001120:	e015      	b.n	800114e <HAL_RCC_OscConfig+0x1de>
 8001122:	4b24      	ldr	r3, [pc, #144]	@ (80011b4 <HAL_RCC_OscConfig+0x244>)
 8001124:	2200      	movs	r2, #0
 8001126:	601a      	str	r2, [r3, #0]
 8001128:	f7ff fc96 	bl	8000a58 <HAL_GetTick>
 800112c:	6138      	str	r0, [r7, #16]
 800112e:	e008      	b.n	8001142 <HAL_RCC_OscConfig+0x1d2>
 8001130:	f7ff fc92 	bl	8000a58 <HAL_GetTick>
 8001134:	4602      	mov	r2, r0
 8001136:	693b      	ldr	r3, [r7, #16]
 8001138:	1ad3      	subs	r3, r2, r3
 800113a:	2b02      	cmp	r3, #2
 800113c:	d901      	bls.n	8001142 <HAL_RCC_OscConfig+0x1d2>
 800113e:	2303      	movs	r3, #3
 8001140:	e187      	b.n	8001452 <HAL_RCC_OscConfig+0x4e2>
 8001142:	4b1b      	ldr	r3, [pc, #108]	@ (80011b0 <HAL_RCC_OscConfig+0x240>)
 8001144:	681b      	ldr	r3, [r3, #0]
 8001146:	f003 0302 	and.w	r3, r3, #2
 800114a:	2b00      	cmp	r3, #0
 800114c:	d1f0      	bne.n	8001130 <HAL_RCC_OscConfig+0x1c0>
 800114e:	687b      	ldr	r3, [r7, #4]
 8001150:	681b      	ldr	r3, [r3, #0]
 8001152:	f003 0308 	and.w	r3, r3, #8
 8001156:	2b00      	cmp	r3, #0
 8001158:	d036      	beq.n	80011c8 <HAL_RCC_OscConfig+0x258>
 800115a:	687b      	ldr	r3, [r7, #4]
 800115c:	695b      	ldr	r3, [r3, #20]
 800115e:	2b00      	cmp	r3, #0
 8001160:	d016      	beq.n	8001190 <HAL_RCC_OscConfig+0x220>
 8001162:	4b15      	ldr	r3, [pc, #84]	@ (80011b8 <HAL_RCC_OscConfig+0x248>)
 8001164:	2201      	movs	r2, #1
 8001166:	601a      	str	r2, [r3, #0]
 8001168:	f7ff fc76 	bl	8000a58 <HAL_GetTick>
 800116c:	6138      	str	r0, [r7, #16]
 800116e:	e008      	b.n	8001182 <HAL_RCC_OscConfig+0x212>
 8001170:	f7ff fc72 	bl	8000a58 <HAL_GetTick>
 8001174:	4602      	mov	r2, r0
 8001176:	693b      	ldr	r3, [r7, #16]
 8001178:	1ad3      	subs	r3, r2, r3
 800117a:	2b02      	cmp	r3, #2
 800117c:	d901      	bls.n	8001182 <HAL_RCC_OscConfig+0x212>
 800117e:	2303      	movs	r3, #3
 8001180:	e167      	b.n	8001452 <HAL_RCC_OscConfig+0x4e2>
 8001182:	4b0b      	ldr	r3, [pc, #44]	@ (80011b0 <HAL_RCC_OscConfig+0x240>)
 8001184:	6f5b      	ldr	r3, [r3, #116]	@ 0x74
 8001186:	f003 0302 	and.w	r3, r3, #2
 800118a:	2b00      	cmp	r3, #0
 800118c:	d0f0      	beq.n	8001170 <HAL_RCC_OscConfig+0x200>
 800118e:	e01b      	b.n	80011c8 <HAL_RCC_OscConfig+0x258>
 8001190:	4b09      	ldr	r3, [pc, #36]	@ (80011b8 <HAL_RCC_OscConfig+0x248>)
 8001192:	2200      	movs	r2, #0
 8001194:	601a      	str	r2, [r3, #0]
 8001196:	f7ff fc5f 	bl	8000a58 <HAL_GetTick>
 800119a:	6138      	str	r0, [r7, #16]
 800119c:	e00e      	b.n	80011bc <HAL_RCC_OscConfig+0x24c>
 800119e:	f7ff fc5b 	bl	8000a58 <HAL_GetTick>
 80011a2:	4602      	mov	r2, r0
 80011a4:	693b      	ldr	r3, [r7, #16]
 80011a6:	1ad3      	subs	r3, r2, r3
 80011a8:	2b02      	cmp	r3, #2
 80011aa:	d907      	bls.n	80011bc <HAL_RCC_OscConfig+0x24c>
 80011ac:	2303      	movs	r3, #3
 80011ae:	e150      	b.n	8001452 <HAL_RCC_OscConfig+0x4e2>
 80011b0:	40023800 	.word	0x40023800
 80011b4:	42470000 	.word	0x42470000
 80011b8:	42470e80 	.word	0x42470e80
 80011bc:	4b88      	ldr	r3, [pc, #544]	@ (80013e0 <HAL_RCC_OscConfig+0x470>)
 80011be:	6f5b      	ldr	r3, [r3, #116]	@ 0x74
 80011c0:	f003 0302 	and.w	r3, r3, #2
 80011c4:	2b00      	cmp	r3, #0
 80011c6:	d1ea      	bne.n	800119e <HAL_RCC_OscConfig+0x22e>
 80011c8:	687b      	ldr	r3, [r7, #4]
 80011ca:	681b      	ldr	r3, [r3, #0]
 80011cc:	f003 0304 	and.w	r3, r3, #4
 80011d0:	2b00      	cmp	r3, #0
 80011d2:	f000 8097 	beq.w	8001304 <HAL_RCC_OscConfig+0x394>
 80011d6:	2300      	movs	r3, #0
 80011d8:	75fb      	strb	r3, [r7, #23]
 80011da:	4b81      	ldr	r3, [pc, #516]	@ (80013e0 <HAL_RCC_OscConfig+0x470>)
 80011dc:	6c1b      	ldr	r3, [r3, #64]	@ 0x40
 80011de:	f003 5380 	and.w	r3, r3, #268435456	@ 0x10000000
 80011e2:	2b00      	cmp	r3, #0
 80011e4:	d10f      	bne.n	8001206 <HAL_RCC_OscConfig+0x296>
 80011e6:	2300      	movs	r3, #0
 80011e8:	60bb      	str	r3, [r7, #8]
 80011ea:	4b7d      	ldr	r3, [pc, #500]	@ (80013e0 <HAL_RCC_OscConfig+0x470>)
 80011ec:	6c1b      	ldr	r3, [r3, #64]	@ 0x40
 80011ee:	4a7c      	ldr	r2, [pc, #496]	@ (80013e0 <HAL_RCC_OscConfig+0x470>)
 80011f0:	f043 5380 	orr.w	r3, r3, #268435456	@ 0x10000000
 80011f4:	6413      	str	r3, [r2, #64]	@ 0x40
 80011f6:	4b7a      	ldr	r3, [pc, #488]	@ (80013e0 <HAL_RCC_OscConfig+0x470>)
 80011f8:	6c1b      	ldr	r3, [r3, #64]	@ 0x40
 80011fa:	f003 5380 	and.w	r3, r3, #268435456	@ 0x10000000
 80011fe:	60bb      	str	r3, [r7, #8]
 8001200:	68bb      	ldr	r3, [r7, #8]
 8001202:	2301      	movs	r3, #1
 8001204:	75fb      	strb	r3, [r7, #23]
 8001206:	4b77      	ldr	r3, [pc, #476]	@ (80013e4 <HAL_RCC_OscConfig+0x474>)
 8001208:	681b      	ldr	r3, [r3, #0]
 800120a:	f403 7380 	and.w	r3, r3, #256	@ 0x100
 800120e:	2b00      	cmp	r3, #0
 8001210:	d118      	bne.n	8001244 <HAL_RCC_OscConfig+0x2d4>
 8001212:	4b74      	ldr	r3, [pc, #464]	@ (80013e4 <HAL_RCC_OscConfig+0x474>)
 8001214:	681b      	ldr	r3, [r3, #0]
 8001216:	4a73      	ldr	r2, [pc, #460]	@ (80013e4 <HAL_RCC_OscConfig+0x474>)
 8001218:	f443 7380 	orr.w	r3, r3, #256	@ 0x100
 800121c:	6013      	str	r3, [r2, #0]
 800121e:	f7ff fc1b 	bl	8000a58 <HAL_GetTick>
 8001222:	6138      	str	r0, [r7, #16]
 8001224:	e008      	b.n	8001238 <HAL_RCC_OscConfig+0x2c8>
 8001226:	f7ff fc17 	bl	8000a58 <HAL_GetTick>
 800122a:	4602      	mov	r2, r0
 800122c:	693b      	ldr	r3, [r7, #16]
 800122e:	1ad3      	subs	r3, r2, r3
 8001230:	2b02      	cmp	r3, #2
 8001232:	d901      	bls.n	8001238 <HAL_RCC_OscConfig+0x2c8>
 8001234:	2303      	movs	r3, #3
 8001236:	e10c      	b.n	8001452 <HAL_RCC_OscConfig+0x4e2>
 8001238:	4b6a      	ldr	r3, [pc, #424]	@ (80013e4 <HAL_RCC_OscConfig+0x474>)
 800123a:	681b      	ldr	r3, [r3, #0]
 800123c:	f403 7380 	and.w	r3, r3, #256	@ 0x100
 8001240:	2b00      	cmp	r3, #0
 8001242:	d0f0      	beq.n	8001226 <HAL_RCC_OscConfig+0x2b6>
 8001244:	687b      	ldr	r3, [r7, #4]
 8001246:	689b      	ldr	r3, [r3, #8]
 8001248:	2b01      	cmp	r3, #1
 800124a:	d106      	bne.n	800125a <HAL_RCC_OscConfig+0x2ea>
 800124c:	4b64      	ldr	r3, [pc, #400]	@ (80013e0 <HAL_RCC_OscConfig+0x470>)
 800124e:	6f1b      	ldr	r3, [r3, #112]	@ 0x70
 8001250:	4a63      	ldr	r2, [pc, #396]	@ (80013e0 <HAL_RCC_OscConfig+0x470>)
 8001252:	f043 0301 	orr.w	r3, r3, #1
 8001256:	6713      	str	r3, [r2, #112]	@ 0x70
 8001258:	e01c      	b.n	8001294 <HAL_RCC_OscConfig+0x324>
 800125a:	687b      	ldr	r3, [r7, #4]
 800125c:	689b      	ldr	r3, [r3, #8]
 800125e:	2b05      	cmp	r3, #5
 8001260:	d10c      	bne.n	800127c <HAL_RCC_OscConfig+0x30c>
 8001262:	4b5f      	ldr	r3, [pc, #380]	@ (80013e0 <HAL_RCC_OscConfig+0x470>)
 8001264:	6f1b      	ldr	r3, [r3, #112]	@ 0x70
 8001266:	4a5e      	ldr	r2, [pc, #376]	@ (80013e0 <HAL_RCC_OscConfig+0x470>)
 8001268:	f043 0304 	orr.w	r3, r3, #4
 800126c:	6713      	str	r3, [r2, #112]	@ 0x70
 800126e:	4b5c      	ldr	r3, [pc, #368]	@ (80013e0 <HAL_RCC_OscConfig+0x470>)
 8001270:	6f1b      	ldr	r3, [r3, #112]	@ 0x70
 8001272:	4a5b      	ldr	r2, [pc, #364]	@ (80013e0 <HAL_RCC_OscConfig+0x470>)
 8001274:	f043 0301 	orr.w	r3, r3, #1
 8001278:	6713      	str	r3, [r2, #112]	@ 0x70
 800127a:	e00b      	b.n	8001294 <HAL_RCC_OscConfig+0x324>
 800127c:	4b58      	ldr	r3, [pc, #352]	@ (80013e0 <HAL_RCC_OscConfig+0x470>)
 800127e:	6f1b      	ldr	r3, [r3, #112]	@ 0x70
 8001280:	4a57      	ldr	r2, [pc, #348]	@ (80013e0 <HAL_RCC_OscConfig+0x470>)
 8001282:	f023 0301 	bic.w	r3, r3, #1
 8001286:	6713      	str	r3, [r2, #112]	@ 0x70
 8001288:	4b55      	ldr	r3, [pc, #340]	@ (80013e0 <HAL_RCC_OscConfig+0x470>)
 800128a:	6f1b      	ldr	r3, [r3, #112]	@ 0x70
 800128c:	4a54      	ldr	r2, [pc, #336]	@ (80013e0 <HAL_RCC_OscConfig+0x470>)
 800128e:	f023 0304 	bic.w	r3, r3, #4
 8001292:	6713      	str	r3, [r2, #112]	@ 0x70
 8001294:	687b      	ldr	r3, [r7, #4]
 8001296:	689b      	ldr	r3, [r3, #8]
 8001298:	2b00      	cmp	r3, #0
 800129a:	d015      	beq.n	80012c8 <HAL_RCC_OscConfig+0x358>
 800129c:	f7ff fbdc 	bl	8000a58 <HAL_GetTick>
 80012a0:	6138      	str	r0, [r7, #16]
 80012a2:	e00a      	b.n	80012ba <HAL_RCC_OscConfig+0x34a>
 80012a4:	f7ff fbd8 	bl	8000a58 <HAL_GetTick>
 80012a8:	4602      	mov	r2, r0
 80012aa:	693b      	ldr	r3, [r7, #16]
 80012ac:	1ad3      	subs	r3, r2, r3
 80012ae:	f241 3288 	movw	r2, #5000	@ 0x1388
 80012b2:	4293      	cmp	r3, r2
 80012b4:	d901      	bls.n	80012ba <HAL_RCC_OscConfig+0x34a>
 80012b6:	2303      	movs	r3, #3
 80012b8:	e0cb      	b.n	8001452 <HAL_RCC_OscConfig+0x4e2>
 80012ba:	4b49      	ldr	r3, [pc, #292]	@ (80013e0 <HAL_RCC_OscConfig+0x470>)
 80012bc:	6f1b      	ldr	r3, [r3, #112]	@ 0x70
 80012be:	f003 0302 	and.w	r3, r3, #2
 80012c2:	2b00      	cmp	r3, #0
 80012c4:	d0ee      	beq.n	80012a4 <HAL_RCC_OscConfig+0x334>
 80012c6:	e014      	b.n	80012f2 <HAL_RCC_OscConfig+0x382>
 80012c8:	f7ff fbc6 	bl	8000a58 <HAL_GetTick>
 80012cc:	6138      	str	r0, [r7, #16]
 80012ce:	e00a      	b.n	80012e6 <HAL_RCC_OscConfig+0x376>
 80012d0:	f7ff fbc2 	bl	8000a58 <HAL_GetTick>
 80012d4:	4602      	mov	r2, r0
 80012d6:	693b      	ldr	r3, [r7, #16]
 80012d8:	1ad3      	subs	r3, r2, r3
 80012da:	f241 3288 	movw	r2, #5000	@ 0x1388
 80012de:	4293      	cmp	r3, r2
 80012e0:	d901      	bls.n	80012e6 <HAL_RCC_OscConfig+0x376>
 80012e2:	2303      	movs	r3, #3
 80012e4:	e0b5      	b.n	8001452 <HAL_RCC_OscConfig+0x4e2>
 80012e6:	4b3e      	ldr	r3, [pc, #248]	@ (80013e0 <HAL_RCC_OscConfig+0x470>)
 80012e8:	6f1b      	ldr	r3, [r3, #112]	@ 0x70
 80012ea:	f003 0302 	and.w	r3, r3, #2
 80012ee:	2b00      	cmp	r3, #0
 80012f0:	d1ee      	bne.n	80012d0 <HAL_RCC_OscConfig+0x360>
 80012f2:	7dfb      	ldrb	r3, [r7, #23]
 80012f4:	2b01      	cmp	r3, #1
 80012f6:	d105      	bne.n	8001304 <HAL_RCC_OscConfig+0x394>
 80012f8:	4b39      	ldr	r3, [pc, #228]	@ (80013e0 <HAL_RCC_OscConfig+0x470>)
 80012fa:	6c1b      	ldr	r3, [r3, #64]	@ 0x40
 80012fc:	4a38      	ldr	r2, [pc, #224]	@ (80013e0 <HAL_RCC_OscConfig+0x470>)
 80012fe:	f023 5380 	bic.w	r3, r3, #268435456	@ 0x10000000
 8001302:	6413      	str	r3, [r2, #64]	@ 0x40
 8001304:	687b      	ldr	r3, [r7, #4]
 8001306:	699b      	ldr	r3, [r3, #24]
 8001308:	2b00      	cmp	r3, #0
 800130a:	f000 80a1 	beq.w	8001450 <HAL_RCC_OscConfig+0x4e0>
 800130e:	4b34      	ldr	r3, [pc, #208]	@ (80013e0 <HAL_RCC_OscConfig+0x470>)
 8001310:	689b      	ldr	r3, [r3, #8]
 8001312:	f003 030c 	and.w	r3, r3, #12
 8001316:	2b08      	cmp	r3, #8
 8001318:	d05c      	beq.n	80013d4 <HAL_RCC_OscConfig+0x464>
 800131a:	687b      	ldr	r3, [r7, #4]
 800131c:	699b      	ldr	r3, [r3, #24]
 800131e:	2b02      	cmp	r3, #2
 8001320:	d141      	bne.n	80013a6 <HAL_RCC_OscConfig+0x436>
 8001322:	4b31      	ldr	r3, [pc, #196]	@ (80013e8 <HAL_RCC_OscConfig+0x478>)
 8001324:	2200      	movs	r2, #0
 8001326:	601a      	str	r2, [r3, #0]
 8001328:	f7ff fb96 	bl	8000a58 <HAL_GetTick>
 800132c:	6138      	str	r0, [r7, #16]
 800132e:	e008      	b.n	8001342 <HAL_RCC_OscConfig+0x3d2>
 8001330:	f7ff fb92 	bl	8000a58 <HAL_GetTick>
 8001334:	4602      	mov	r2, r0
 8001336:	693b      	ldr	r3, [r7, #16]
 8001338:	1ad3      	subs	r3, r2, r3
 800133a:	2b02      	cmp	r3, #2
 800133c:	d901      	bls.n	8001342 <HAL_RCC_OscConfig+0x3d2>
 800133e:	2303      	movs	r3, #3
 8001340:	e087      	b.n	8001452 <HAL_RCC_OscConfig+0x4e2>
 8001342:	4b27      	ldr	r3, [pc, #156]	@ (80013e0 <HAL_RCC_OscConfig+0x470>)
 8001344:	681b      	ldr	r3, [r3, #0]
 8001346:	f003 7300 	and.w	r3, r3, #33554432	@ 0x2000000
 800134a:	2b00      	cmp	r3, #0
 800134c:	d1f0      	bne.n	8001330 <HAL_RCC_OscConfig+0x3c0>
 800134e:	687b      	ldr	r3, [r7, #4]
 8001350:	69da      	ldr	r2, [r3, #28]
 8001352:	687b      	ldr	r3, [r7, #4]
 8001354:	6a1b      	ldr	r3, [r3, #32]
 8001356:	431a      	orrs	r2, r3
 8001358:	687b      	ldr	r3, [r7, #4]
 800135a:	6a5b      	ldr	r3, [r3, #36]	@ 0x24
 800135c:	019b      	lsls	r3, r3, #6
 800135e:	431a      	orrs	r2, r3
 8001360:	687b      	ldr	r3, [r7, #4]
 8001362:	6a9b      	ldr	r3, [r3, #40]	@ 0x28
 8001364:	085b      	lsrs	r3, r3, #1
 8001366:	3b01      	subs	r3, #1
 8001368:	041b      	lsls	r3, r3, #16
 800136a:	431a      	orrs	r2, r3
 800136c:	687b      	ldr	r3, [r7, #4]
 800136e:	6adb      	ldr	r3, [r3, #44]	@ 0x2c
 8001370:	061b      	lsls	r3, r3, #24
 8001372:	491b      	ldr	r1, [pc, #108]	@ (80013e0 <HAL_RCC_OscConfig+0x470>)
 8001374:	4313      	orrs	r3, r2
 8001376:	604b      	str	r3, [r1, #4]
 8001378:	4b1b      	ldr	r3, [pc, #108]	@ (80013e8 <HAL_RCC_OscConfig+0x478>)
 800137a:	2201      	movs	r2, #1
 800137c:	601a      	str	r2, [r3, #0]
 800137e:	f7ff fb6b 	bl	8000a58 <HAL_GetTick>
 8001382:	6138      	str	r0, [r7, #16]
 8001384:	e008      	b.n	8001398 <HAL_RCC_OscConfig+0x428>
 8001386:	f7ff fb67 	bl	8000a58 <HAL_GetTick>
 800138a:	4602      	mov	r2, r0
 800138c:	693b      	ldr	r3, [r7, #16]
 800138e:	1ad3      	subs	r3, r2, r3
 8001390:	2b02      	cmp	r3, #2
 8001392:	d901      	bls.n	8001398 <HAL_RCC_OscConfig+0x428>
 8001394:	2303      	movs	r3, #3
 8001396:	e05c      	b.n	8001452 <HAL_RCC_OscConfig+0x4e2>
 8001398:	4b11      	ldr	r3, [pc, #68]	@ (80013e0 <HAL_RCC_OscConfig+0x470>)
 800139a:	681b      	ldr	r3, [r3, #0]
 800139c:	f003 7300 	and.w	r3, r3, #33554432	@ 0x2000000
 80013a0:	2b00      	cmp	r3, #0
 80013a2:	d0f0      	beq.n	8001386 <HAL_RCC_OscConfig+0x416>
 80013a4:	e054      	b.n	8001450 <HAL_RCC_OscConfig+0x4e0>
 80013a6:	4b10      	ldr	r3, [pc, #64]	@ (80013e8 <HAL_RCC_OscConfig+0x478>)
 80013a8:	2200      	movs	r2, #0
 80013aa:	601a      	str	r2, [r3, #0]
 80013ac:	f7ff fb54 	bl	8000a58 <HAL_GetTick>
 80013b0:	6138      	str	r0, [r7, #16]
 80013b2:	e008      	b.n	80013c6 <HAL_RCC_OscConfig+0x456>
 80013b4:	f7ff fb50 	bl	8000a58 <HAL_GetTick>
 80013b8:	4602      	mov	r2, r0
 80013ba:	693b      	ldr	r3, [r7, #16]
 80013bc:	1ad3      	subs	r3, r2, r3
 80013be:	2b02      	cmp	r3, #2
 80013c0:	d901      	bls.n	80013c6 <HAL_RCC_OscConfig+0x456>
 80013c2:	2303      	movs	r3, #3
 80013c4:	e045      	b.n	8001452 <HAL_RCC_OscConfig+0x4e2>
 80013c6:	4b06      	ldr	r3, [pc, #24]	@ (80013e0 <HAL_RCC_OscConfig+0x470>)
 80013c8:	681b      	ldr	r3, [r3, #0]
 80013ca:	f003 7300 	and.w	r3, r3, #33554432	@ 0x2000000
 80013ce:	2b00      	cmp	r3, #0
 80013d0:	d1f0      	bne.n	80013b4 <HAL_RCC_OscConfig+0x444>
 80013d2:	e03d      	b.n	8001450 <HAL_RCC_OscConfig+0x4e0>
 80013d4:	687b      	ldr	r3, [r7, #4]
 80013d6:	699b      	ldr	r3, [r3, #24]
 80013d8:	2b01      	cmp	r3, #1
 80013da:	d107      	bne.n	80013ec <HAL_RCC_OscConfig+0x47c>
 80013dc:	2301      	movs	r3, #1
 80013de:	e038      	b.n	8001452 <HAL_RCC_OscConfig+0x4e2>
 80013e0:	40023800 	.word	0x40023800
 80013e4:	40007000 	.word	0x40007000
 80013e8:	42470060 	.word	0x42470060
 80013ec:	4b1b      	ldr	r3, [pc, #108]	@ (800145c <HAL_RCC_OscConfig+0x4ec>)
 80013ee:	685b      	ldr	r3, [r3, #4]
 80013f0:	60fb      	str	r3, [r7, #12]
 80013f2:	687b      	ldr	r3, [r7, #4]
 80013f4:	699b      	ldr	r3, [r3, #24]
 80013f6:	2b01      	cmp	r3, #1
 80013f8:	d028      	beq.n	800144c <HAL_RCC_OscConfig+0x4dc>
 80013fa:	68fb      	ldr	r3, [r7, #12]
 80013fc:	f403 0280 	and.w	r2, r3, #4194304	@ 0x400000
 8001400:	687b      	ldr	r3, [r7, #4]
 8001402:	69db      	ldr	r3, [r3, #28]
 8001404:	429a      	cmp	r2, r3
 8001406:	d121      	bne.n	800144c <HAL_RCC_OscConfig+0x4dc>
 8001408:	68fb      	ldr	r3, [r7, #12]
 800140a:	f003 023f 	and.w	r2, r3, #63	@ 0x3f
 800140e:	687b      	ldr	r3, [r7, #4]
 8001410:	6a1b      	ldr	r3, [r3, #32]
 8001412:	429a      	cmp	r2, r3
 8001414:	d11a      	bne.n	800144c <HAL_RCC_OscConfig+0x4dc>
 8001416:	68fa      	ldr	r2, [r7, #12]
 8001418:	f647 73c0 	movw	r3, #32704	@ 0x7fc0
 800141c:	4013      	ands	r3, r2
 800141e:	687a      	ldr	r2, [r7, #4]
 8001420:	6a52      	ldr	r2, [r2, #36]	@ 0x24
 8001422:	0192      	lsls	r2, r2, #6
 8001424:	4293      	cmp	r3, r2
 8001426:	d111      	bne.n	800144c <HAL_RCC_OscConfig+0x4dc>
 8001428:	68fb      	ldr	r3, [r7, #12]
 800142a:	f403 3240 	and.w	r2, r3, #196608	@ 0x30000
 800142e:	687b      	ldr	r3, [r7, #4]
 8001430:	6a9b      	ldr	r3, [r3, #40]	@ 0x28
 8001432:	085b      	lsrs	r3, r3, #1
 8001434:	3b01      	subs	r3, #1
 8001436:	041b      	lsls	r3, r3, #16
 8001438:	429a      	cmp	r2, r3
 800143a:	d107      	bne.n	800144c <HAL_RCC_OscConfig+0x4dc>
 800143c:	68fb      	ldr	r3, [r7, #12]
 800143e:	f003 6270 	and.w	r2, r3, #251658240	@ 0xf000000
 8001442:	687b      	ldr	r3, [r7, #4]
 8001444:	6adb      	ldr	r3, [r3, #44]	@ 0x2c
 8001446:	061b      	lsls	r3, r3, #24
 8001448:	429a      	cmp	r2, r3
 800144a:	d001      	beq.n	8001450 <HAL_RCC_OscConfig+0x4e0>
 800144c:	2301      	movs	r3, #1
 800144e:	e000      	b.n	8001452 <HAL_RCC_OscConfig+0x4e2>
 8001450:	2300      	movs	r3, #0
 8001452:	4618      	mov	r0, r3
 8001454:	3718      	adds	r7, #24
 8001456:	46bd      	mov	sp, r7
 8001458:	bd80      	pop	{r7, pc}
 800145a:	bf00      	nop
 800145c:	40023800 	.word	0x40023800

08001460 <HAL_RCC_ClockConfig>:
 8001460:	b580      	push	{r7, lr}
 8001462:	b084      	sub	sp, #16
 8001464:	af00      	add	r7, sp, #0
 8001466:	6078      	str	r0, [r7, #4]
 8001468:	6039      	str	r1, [r7, #0]
 800146a:	687b      	ldr	r3, [r7, #4]
 800146c:	2b00      	cmp	r3, #0
 800146e:	d101      	bne.n	8001474 <HAL_RCC_ClockConfig+0x14>
 8001470:	2301      	movs	r3, #1
 8001472:	e0cc      	b.n	800160e <HAL_RCC_ClockConfig+0x1ae>
 8001474:	4b68      	ldr	r3, [pc, #416]	@ (8001618 <HAL_RCC_ClockConfig+0x1b8>)
 8001476:	681b      	ldr	r3, [r3, #0]
 8001478:	f003 0307 	and.w	r3, r3, #7
 800147c:	683a      	ldr	r2, [r7, #0]
 800147e:	429a      	cmp	r2, r3
 8001480:	d90c      	bls.n	800149c <HAL_RCC_ClockConfig+0x3c>
 8001482:	4b65      	ldr	r3, [pc, #404]	@ (8001618 <HAL_RCC_ClockConfig+0x1b8>)
 8001484:	683a      	ldr	r2, [r7, #0]
 8001486:	b2d2      	uxtb	r2, r2
 8001488:	701a      	strb	r2, [r3, #0]
 800148a:	4b63      	ldr	r3, [pc, #396]	@ (8001618 <HAL_RCC_ClockConfig+0x1b8>)
 800148c:	681b      	ldr	r3, [r3, #0]
 800148e:	f003 0307 	and.w	r3, r3, #7
 8001492:	683a      	ldr	r2, [r7, #0]
 8001494:	429a      	cmp	r2, r3
 8001496:	d001      	beq.n	800149c <HAL_RCC_ClockConfig+0x3c>
 8001498:	2301      	movs	r3, #1
 800149a:	e0b8      	b.n	800160e <HAL_RCC_ClockConfig+0x1ae>
 800149c:	687b      	ldr	r3, [r7, #4]
 800149e:	681b      	ldr	r3, [r3, #0]
 80014a0:	f003 0302 	and.w	r3, r3, #2
 80014a4:	2b00      	cmp	r3, #0
 80014a6:	d020      	beq.n	80014ea <HAL_RCC_ClockConfig+0x8a>
 80014a8:	687b      	ldr	r3, [r7, #4]
 80014aa:	681b      	ldr	r3, [r3, #0]
 80014ac:	f003 0304 	and.w	r3, r3, #4
 80014b0:	2b00      	cmp	r3, #0
 80014b2:	d005      	beq.n	80014c0 <HAL_RCC_ClockConfig+0x60>
 80014b4:	4b59      	ldr	r3, [pc, #356]	@ (800161c <HAL_RCC_ClockConfig+0x1bc>)
 80014b6:	689b      	ldr	r3, [r3, #8]
 80014b8:	4a58      	ldr	r2, [pc, #352]	@ (800161c <HAL_RCC_ClockConfig+0x1bc>)
 80014ba:	f443 53e0 	orr.w	r3, r3, #7168	@ 0x1c00
 80014be:	6093      	str	r3, [r2, #8]
 80014c0:	687b      	ldr	r3, [r7, #4]
 80014c2:	681b      	ldr	r3, [r3, #0]
 80014c4:	f003 0308 	and.w	r3, r3, #8
 80014c8:	2b00      	cmp	r3, #0
 80014ca:	d005      	beq.n	80014d8 <HAL_RCC_ClockConfig+0x78>
 80014cc:	4b53      	ldr	r3, [pc, #332]	@ (800161c <HAL_RCC_ClockConfig+0x1bc>)
 80014ce:	689b      	ldr	r3, [r3, #8]
 80014d0:	4a52      	ldr	r2, [pc, #328]	@ (800161c <HAL_RCC_ClockConfig+0x1bc>)
 80014d2:	f443 4360 	orr.w	r3, r3, #57344	@ 0xe000
 80014d6:	6093      	str	r3, [r2, #8]
 80014d8:	4b50      	ldr	r3, [pc, #320]	@ (800161c <HAL_RCC_ClockConfig+0x1bc>)
 80014da:	689b      	ldr	r3, [r3, #8]
 80014dc:	f023 02f0 	bic.w	r2, r3, #240	@ 0xf0
 80014e0:	687b      	ldr	r3, [r7, #4]
 80014e2:	689b      	ldr	r3, [r3, #8]
 80014e4:	494d      	ldr	r1, [pc, #308]	@ (800161c <HAL_RCC_ClockConfig+0x1bc>)
 80014e6:	4313      	orrs	r3, r2
 80014e8:	608b      	str	r3, [r1, #8]
 80014ea:	687b      	ldr	r3, [r7, #4]
 80014ec:	681b      	ldr	r3, [r3, #0]
 80014ee:	f003 0301 	and.w	r3, r3, #1
 80014f2:	2b00      	cmp	r3, #0
 80014f4:	d044      	beq.n	8001580 <HAL_RCC_ClockConfig+0x120>
 80014f6:	687b      	ldr	r3, [r7, #4]
 80014f8:	685b      	ldr	r3, [r3, #4]
 80014fa:	2b01      	cmp	r3, #1
 80014fc:	d107      	bne.n	800150e <HAL_RCC_ClockConfig+0xae>
 80014fe:	4b47      	ldr	r3, [pc, #284]	@ (800161c <HAL_RCC_ClockConfig+0x1bc>)
 8001500:	681b      	ldr	r3, [r3, #0]
 8001502:	f403 3300 	and.w	r3, r3, #131072	@ 0x20000
 8001506:	2b00      	cmp	r3, #0
 8001508:	d119      	bne.n	800153e <HAL_RCC_ClockConfig+0xde>
 800150a:	2301      	movs	r3, #1
 800150c:	e07f      	b.n	800160e <HAL_RCC_ClockConfig+0x1ae>
 800150e:	687b      	ldr	r3, [r7, #4]
 8001510:	685b      	ldr	r3, [r3, #4]
 8001512:	2b02      	cmp	r3, #2
 8001514:	d003      	beq.n	800151e <HAL_RCC_ClockConfig+0xbe>
 8001516:	687b      	ldr	r3, [r7, #4]
 8001518:	685b      	ldr	r3, [r3, #4]
 800151a:	2b03      	cmp	r3, #3
 800151c:	d107      	bne.n	800152e <HAL_RCC_ClockConfig+0xce>
 800151e:	4b3f      	ldr	r3, [pc, #252]	@ (800161c <HAL_RCC_ClockConfig+0x1bc>)
 8001520:	681b      	ldr	r3, [r3, #0]
 8001522:	f003 7300 	and.w	r3, r3, #33554432	@ 0x2000000
 8001526:	2b00      	cmp	r3, #0
 8001528:	d109      	bne.n	800153e <HAL_RCC_ClockConfig+0xde>
 800152a:	2301      	movs	r3, #1
 800152c:	e06f      	b.n	800160e <HAL_RCC_ClockConfig+0x1ae>
 800152e:	4b3b      	ldr	r3, [pc, #236]	@ (800161c <HAL_RCC_ClockConfig+0x1bc>)
 8001530:	681b      	ldr	r3, [r3, #0]
 8001532:	f003 0302 	and.w	r3, r3, #2
 8001536:	2b00      	cmp	r3, #0
 8001538:	d101      	bne.n	800153e <HAL_RCC_ClockConfig+0xde>
 800153a:	2301      	movs	r3, #1
 800153c:	e067      	b.n	800160e <HAL_RCC_ClockConfig+0x1ae>
 800153e:	4b37      	ldr	r3, [pc, #220]	@ (800161c <HAL_RCC_ClockConfig+0x1bc>)
 8001540:	689b      	ldr	r3, [r3, #8]
 8001542:	f023 0203 	bic.w	r2, r3, #3
 8001546:	687b      	ldr	r3, [r7, #4]
 8001548:	685b      	ldr	r3, [r3, #4]
 800154a:	4934      	ldr	r1, [pc, #208]	@ (800161c <HAL_RCC_ClockConfig+0x1bc>)
 800154c:	4313      	orrs	r3, r2
 800154e:	608b      	str	r3, [r1, #8]
 8001550:	f7ff fa82 	bl	8000a58 <HAL_GetTick>
 8001554:	60f8      	str	r0, [r7, #12]
 8001556:	e00a      	b.n	800156e <HAL_RCC_ClockConfig+0x10e>
 8001558:	f7ff fa7e 	bl	8000a58 <HAL_GetTick>
 800155c:	4602      	mov	r2, r0
 800155e:	68fb      	ldr	r3, [r7, #12]
 8001560:	1ad3      	subs	r3, r2, r3
 8001562:	f241 3288 	movw	r2, #5000	@ 0x1388
 8001566:	4293      	cmp	r3, r2
 8001568:	d901      	bls.n	800156e <HAL_RCC_ClockConfig+0x10e>
 800156a:	2303      	movs	r3, #3
 800156c:	e04f      	b.n	800160e <HAL_RCC_ClockConfig+0x1ae>
 800156e:	4b2b      	ldr	r3, [pc, #172]	@ (800161c <HAL_RCC_ClockConfig+0x1bc>)
 8001570:	689b      	ldr	r3, [r3, #8]
 8001572:	f003 020c 	and.w	r2, r3, #12
 8001576:	687b      	ldr	r3, [r7, #4]
 8001578:	685b      	ldr	r3, [r3, #4]
 800157a:	009b      	lsls	r3, r3, #2
 800157c:	429a      	cmp	r2, r3
 800157e:	d1eb      	bne.n	8001558 <HAL_RCC_ClockConfig+0xf8>
 8001580:	4b25      	ldr	r3, [pc, #148]	@ (8001618 <HAL_RCC_ClockConfig+0x1b8>)
 8001582:	681b      	ldr	r3, [r3, #0]
 8001584:	f003 0307 	and.w	r3, r3, #7
 8001588:	683a      	ldr	r2, [r7, #0]
 800158a:	429a      	cmp	r2, r3
 800158c:	d20c      	bcs.n	80015a8 <HAL_RCC_ClockConfig+0x148>
 800158e:	4b22      	ldr	r3, [pc, #136]	@ (8001618 <HAL_RCC_ClockConfig+0x1b8>)
 8001590:	683a      	ldr	r2, [r7, #0]
 8001592:	b2d2      	uxtb	r2, r2
 8001594:	701a      	strb	r2, [r3, #0]
 8001596:	4b20      	ldr	r3, [pc, #128]	@ (8001618 <HAL_RCC_ClockConfig+0x1b8>)
 8001598:	681b      	ldr	r3, [r3, #0]
 800159a:	f003 0307 	and.w	r3, r3, #7
 800159e:	683a      	ldr	r2, [r7, #0]
 80015a0:	429a      	cmp	r2, r3
 80015a2:	d001      	beq.n	80015a8 <HAL_RCC_ClockConfig+0x148>
 80015a4:	2301      	movs	r3, #1
 80015a6:	e032      	b.n	800160e <HAL_RCC_ClockConfig+0x1ae>
 80015a8:	687b      	ldr	r3, [r7, #4]
 80015aa:	681b      	ldr	r3, [r3, #0]
 80015ac:	f003 0304 	and.w	r3, r3, #4
 80015b0:	2b00      	cmp	r3, #0
 80015b2:	d008      	beq.n	80015c6 <HAL_RCC_ClockConfig+0x166>
 80015b4:	4b19      	ldr	r3, [pc, #100]	@ (800161c <HAL_RCC_ClockConfig+0x1bc>)
 80015b6:	689b      	ldr	r3, [r3, #8]
 80015b8:	f423 52e0 	bic.w	r2, r3, #7168	@ 0x1c00
 80015bc:	687b      	ldr	r3, [r7, #4]
 80015be:	68db      	ldr	r3, [r3, #12]
 80015c0:	4916      	ldr	r1, [pc, #88]	@ (800161c <HAL_RCC_ClockConfig+0x1bc>)
 80015c2:	4313      	orrs	r3, r2
 80015c4:	608b      	str	r3, [r1, #8]
 80015c6:	687b      	ldr	r3, [r7, #4]
 80015c8:	681b      	ldr	r3, [r3, #0]
 80015ca:	f003 0308 	and.w	r3, r3, #8
 80015ce:	2b00      	cmp	r3, #0
 80015d0:	d009      	beq.n	80015e6 <HAL_RCC_ClockConfig+0x186>
 80015d2:	4b12      	ldr	r3, [pc, #72]	@ (800161c <HAL_RCC_ClockConfig+0x1bc>)
 80015d4:	689b      	ldr	r3, [r3, #8]
 80015d6:	f423 4260 	bic.w	r2, r3, #57344	@ 0xe000
 80015da:	687b      	ldr	r3, [r7, #4]
 80015dc:	691b      	ldr	r3, [r3, #16]
 80015de:	00db      	lsls	r3, r3, #3
 80015e0:	490e      	ldr	r1, [pc, #56]	@ (800161c <HAL_RCC_ClockConfig+0x1bc>)
 80015e2:	4313      	orrs	r3, r2
 80015e4:	608b      	str	r3, [r1, #8]
 80015e6:	f000 f821 	bl	800162c <HAL_RCC_GetSysClockFreq>
 80015ea:	4602      	mov	r2, r0
 80015ec:	4b0b      	ldr	r3, [pc, #44]	@ (800161c <HAL_RCC_ClockConfig+0x1bc>)
 80015ee:	689b      	ldr	r3, [r3, #8]
 80015f0:	091b      	lsrs	r3, r3, #4
 80015f2:	f003 030f 	and.w	r3, r3, #15
 80015f6:	490a      	ldr	r1, [pc, #40]	@ (8001620 <HAL_RCC_ClockConfig+0x1c0>)
 80015f8:	5ccb      	ldrb	r3, [r1, r3]
 80015fa:	fa22 f303 	lsr.w	r3, r2, r3
 80015fe:	4a09      	ldr	r2, [pc, #36]	@ (8001624 <HAL_RCC_ClockConfig+0x1c4>)
 8001600:	6013      	str	r3, [r2, #0]
 8001602:	4b09      	ldr	r3, [pc, #36]	@ (8001628 <HAL_RCC_ClockConfig+0x1c8>)
 8001604:	681b      	ldr	r3, [r3, #0]
 8001606:	4618      	mov	r0, r3
 8001608:	f7ff f91c 	bl	8000844 <HAL_InitTick>
 800160c:	2300      	movs	r3, #0
 800160e:	4618      	mov	r0, r3
 8001610:	3710      	adds	r7, #16
 8001612:	46bd      	mov	sp, r7
 8001614:	bd80      	pop	{r7, pc}
 8001616:	bf00      	nop
 8001618:	40023c00 	.word	0x40023c00
 800161c:	40023800 	.word	0x40023800
 8001620:	08004ce8 	.word	0x08004ce8
 8001624:	20000000 	.word	0x20000000
 8001628:	20000004 	.word	0x20000004

0800162c <HAL_RCC_GetSysClockFreq>:
 800162c:	e92d 4fb0 	stmdb	sp!, {r4, r5, r7, r8, r9, sl, fp, lr}
 8001630:	b094      	sub	sp, #80	@ 0x50
 8001632:	af00      	add	r7, sp, #0
 8001634:	2300      	movs	r3, #0
 8001636:	647b      	str	r3, [r7, #68]	@ 0x44
 8001638:	2300      	movs	r3, #0
 800163a:	64fb      	str	r3, [r7, #76]	@ 0x4c
 800163c:	2300      	movs	r3, #0
 800163e:	643b      	str	r3, [r7, #64]	@ 0x40
 8001640:	2300      	movs	r3, #0
 8001642:	64bb      	str	r3, [r7, #72]	@ 0x48
 8001644:	4b79      	ldr	r3, [pc, #484]	@ (800182c <HAL_RCC_GetSysClockFreq+0x200>)
 8001646:	689b      	ldr	r3, [r3, #8]
 8001648:	f003 030c 	and.w	r3, r3, #12
 800164c:	2b08      	cmp	r3, #8
 800164e:	d00d      	beq.n	800166c <HAL_RCC_GetSysClockFreq+0x40>
 8001650:	2b08      	cmp	r3, #8
 8001652:	f200 80e1 	bhi.w	8001818 <HAL_RCC_GetSysClockFreq+0x1ec>
 8001656:	2b00      	cmp	r3, #0
 8001658:	d002      	beq.n	8001660 <HAL_RCC_GetSysClockFreq+0x34>
 800165a:	2b04      	cmp	r3, #4
 800165c:	d003      	beq.n	8001666 <HAL_RCC_GetSysClockFreq+0x3a>
 800165e:	e0db      	b.n	8001818 <HAL_RCC_GetSysClockFreq+0x1ec>
 8001660:	4b73      	ldr	r3, [pc, #460]	@ (8001830 <HAL_RCC_GetSysClockFreq+0x204>)
 8001662:	64bb      	str	r3, [r7, #72]	@ 0x48
 8001664:	e0db      	b.n	800181e <HAL_RCC_GetSysClockFreq+0x1f2>
 8001666:	4b73      	ldr	r3, [pc, #460]	@ (8001834 <HAL_RCC_GetSysClockFreq+0x208>)
 8001668:	64bb      	str	r3, [r7, #72]	@ 0x48
 800166a:	e0d8      	b.n	800181e <HAL_RCC_GetSysClockFreq+0x1f2>
 800166c:	4b6f      	ldr	r3, [pc, #444]	@ (800182c <HAL_RCC_GetSysClockFreq+0x200>)
 800166e:	685b      	ldr	r3, [r3, #4]
 8001670:	f003 033f 	and.w	r3, r3, #63	@ 0x3f
 8001674:	647b      	str	r3, [r7, #68]	@ 0x44
 8001676:	4b6d      	ldr	r3, [pc, #436]	@ (800182c <HAL_RCC_GetSysClockFreq+0x200>)
 8001678:	685b      	ldr	r3, [r3, #4]
 800167a:	f403 0380 	and.w	r3, r3, #4194304	@ 0x400000
 800167e:	2b00      	cmp	r3, #0
 8001680:	d063      	beq.n	800174a <HAL_RCC_GetSysClockFreq+0x11e>
 8001682:	4b6a      	ldr	r3, [pc, #424]	@ (800182c <HAL_RCC_GetSysClockFreq+0x200>)
 8001684:	685b      	ldr	r3, [r3, #4]
 8001686:	099b      	lsrs	r3, r3, #6
 8001688:	2200      	movs	r2, #0
 800168a:	63bb      	str	r3, [r7, #56]	@ 0x38
 800168c:	63fa      	str	r2, [r7, #60]	@ 0x3c
 800168e:	6bbb      	ldr	r3, [r7, #56]	@ 0x38
 8001690:	f3c3 0308 	ubfx	r3, r3, #0, #9
 8001694:	633b      	str	r3, [r7, #48]	@ 0x30
 8001696:	2300      	movs	r3, #0
 8001698:	637b      	str	r3, [r7, #52]	@ 0x34
 800169a:	e9d7 450c 	ldrd	r4, r5, [r7, #48]	@ 0x30
 800169e:	4622      	mov	r2, r4
 80016a0:	462b      	mov	r3, r5
 80016a2:	f04f 0000 	mov.w	r0, #0
 80016a6:	f04f 0100 	mov.w	r1, #0
 80016aa:	0159      	lsls	r1, r3, #5
 80016ac:	ea41 61d2 	orr.w	r1, r1, r2, lsr #27
 80016b0:	0150      	lsls	r0, r2, #5
 80016b2:	4602      	mov	r2, r0
 80016b4:	460b      	mov	r3, r1
 80016b6:	4621      	mov	r1, r4
 80016b8:	1a51      	subs	r1, r2, r1
 80016ba:	6139      	str	r1, [r7, #16]
 80016bc:	4629      	mov	r1, r5
 80016be:	eb63 0301 	sbc.w	r3, r3, r1
 80016c2:	617b      	str	r3, [r7, #20]
 80016c4:	f04f 0200 	mov.w	r2, #0
 80016c8:	f04f 0300 	mov.w	r3, #0
 80016cc:	e9d7 ab04 	ldrd	sl, fp, [r7, #16]
 80016d0:	4659      	mov	r1, fp
 80016d2:	018b      	lsls	r3, r1, #6
 80016d4:	4651      	mov	r1, sl
 80016d6:	ea43 6391 	orr.w	r3, r3, r1, lsr #26
 80016da:	4651      	mov	r1, sl
 80016dc:	018a      	lsls	r2, r1, #6
 80016de:	4651      	mov	r1, sl
 80016e0:	ebb2 0801 	subs.w	r8, r2, r1
 80016e4:	4659      	mov	r1, fp
 80016e6:	eb63 0901 	sbc.w	r9, r3, r1
 80016ea:	f04f 0200 	mov.w	r2, #0
 80016ee:	f04f 0300 	mov.w	r3, #0
 80016f2:	ea4f 03c9 	mov.w	r3, r9, lsl #3
 80016f6:	ea43 7358 	orr.w	r3, r3, r8, lsr #29
 80016fa:	ea4f 02c8 	mov.w	r2, r8, lsl #3
 80016fe:	4690      	mov	r8, r2
 8001700:	4699      	mov	r9, r3
 8001702:	4623      	mov	r3, r4
 8001704:	eb18 0303 	adds.w	r3, r8, r3
 8001708:	60bb      	str	r3, [r7, #8]
 800170a:	462b      	mov	r3, r5
 800170c:	eb49 0303 	adc.w	r3, r9, r3
 8001710:	60fb      	str	r3, [r7, #12]
 8001712:	f04f 0200 	mov.w	r2, #0
 8001716:	f04f 0300 	mov.w	r3, #0
 800171a:	e9d7 4502 	ldrd	r4, r5, [r7, #8]
 800171e:	4629      	mov	r1, r5
 8001720:	024b      	lsls	r3, r1, #9
 8001722:	4621      	mov	r1, r4
 8001724:	ea43 53d1 	orr.w	r3, r3, r1, lsr #23
 8001728:	4621      	mov	r1, r4
 800172a:	024a      	lsls	r2, r1, #9
 800172c:	4610      	mov	r0, r2
 800172e:	4619      	mov	r1, r3
 8001730:	6c7b      	ldr	r3, [r7, #68]	@ 0x44
 8001732:	2200      	movs	r2, #0
 8001734:	62bb      	str	r3, [r7, #40]	@ 0x28
 8001736:	62fa      	str	r2, [r7, #44]	@ 0x2c
 8001738:	e9d7 230a 	ldrd	r2, r3, [r7, #40]	@ 0x28
 800173c:	f7fe fd50 	bl	80001e0 <__aeabi_uldivmod>
 8001740:	4602      	mov	r2, r0
 8001742:	460b      	mov	r3, r1
 8001744:	4613      	mov	r3, r2
 8001746:	64fb      	str	r3, [r7, #76]	@ 0x4c
 8001748:	e058      	b.n	80017fc <HAL_RCC_GetSysClockFreq+0x1d0>
 800174a:	4b38      	ldr	r3, [pc, #224]	@ (800182c <HAL_RCC_GetSysClockFreq+0x200>)
 800174c:	685b      	ldr	r3, [r3, #4]
 800174e:	099b      	lsrs	r3, r3, #6
 8001750:	2200      	movs	r2, #0
 8001752:	4618      	mov	r0, r3
 8001754:	4611      	mov	r1, r2
 8001756:	f3c0 0308 	ubfx	r3, r0, #0, #9
 800175a:	623b      	str	r3, [r7, #32]
 800175c:	2300      	movs	r3, #0
 800175e:	627b      	str	r3, [r7, #36]	@ 0x24
 8001760:	e9d7 8908 	ldrd	r8, r9, [r7, #32]
 8001764:	4642      	mov	r2, r8
 8001766:	464b      	mov	r3, r9
 8001768:	f04f 0000 	mov.w	r0, #0
 800176c:	f04f 0100 	mov.w	r1, #0
 8001770:	0159      	lsls	r1, r3, #5
 8001772:	ea41 61d2 	orr.w	r1, r1, r2, lsr #27
 8001776:	0150      	lsls	r0, r2, #5
 8001778:	4602      	mov	r2, r0
 800177a:	460b      	mov	r3, r1
 800177c:	4641      	mov	r1, r8
 800177e:	ebb2 0a01 	subs.w	sl, r2, r1
 8001782:	4649      	mov	r1, r9
 8001784:	eb63 0b01 	sbc.w	fp, r3, r1
 8001788:	f04f 0200 	mov.w	r2, #0
 800178c:	f04f 0300 	mov.w	r3, #0
 8001790:	ea4f 138b 	mov.w	r3, fp, lsl #6
 8001794:	ea43 639a 	orr.w	r3, r3, sl, lsr #26
 8001798:	ea4f 128a 	mov.w	r2, sl, lsl #6
 800179c:	ebb2 040a 	subs.w	r4, r2, sl
 80017a0:	eb63 050b 	sbc.w	r5, r3, fp
 80017a4:	f04f 0200 	mov.w	r2, #0
 80017a8:	f04f 0300 	mov.w	r3, #0
 80017ac:	00eb      	lsls	r3, r5, #3
 80017ae:	ea43 7354 	orr.w	r3, r3, r4, lsr #29
 80017b2:	00e2      	lsls	r2, r4, #3
 80017b4:	4614      	mov	r4, r2
 80017b6:	461d      	mov	r5, r3
 80017b8:	4643      	mov	r3, r8
 80017ba:	18e3      	adds	r3, r4, r3
 80017bc:	603b      	str	r3, [r7, #0]
 80017be:	464b      	mov	r3, r9
 80017c0:	eb45 0303 	adc.w	r3, r5, r3
 80017c4:	607b      	str	r3, [r7, #4]
 80017c6:	f04f 0200 	mov.w	r2, #0
 80017ca:	f04f 0300 	mov.w	r3, #0
 80017ce:	e9d7 4500 	ldrd	r4, r5, [r7]
 80017d2:	4629      	mov	r1, r5
 80017d4:	028b      	lsls	r3, r1, #10
 80017d6:	4621      	mov	r1, r4
 80017d8:	ea43 5391 	orr.w	r3, r3, r1, lsr #22
 80017dc:	4621      	mov	r1, r4
 80017de:	028a      	lsls	r2, r1, #10
 80017e0:	4610      	mov	r0, r2
 80017e2:	4619      	mov	r1, r3
 80017e4:	6c7b      	ldr	r3, [r7, #68]	@ 0x44
 80017e6:	2200      	movs	r2, #0
 80017e8:	61bb      	str	r3, [r7, #24]
 80017ea:	61fa      	str	r2, [r7, #28]
 80017ec:	e9d7 2306 	ldrd	r2, r3, [r7, #24]
 80017f0:	f7fe fcf6 	bl	80001e0 <__aeabi_uldivmod>
 80017f4:	4602      	mov	r2, r0
 80017f6:	460b      	mov	r3, r1
 80017f8:	4613      	mov	r3, r2
 80017fa:	64fb      	str	r3, [r7, #76]	@ 0x4c
 80017fc:	4b0b      	ldr	r3, [pc, #44]	@ (800182c <HAL_RCC_GetSysClockFreq+0x200>)
 80017fe:	685b      	ldr	r3, [r3, #4]
 8001800:	0c1b      	lsrs	r3, r3, #16
 8001802:	f003 0303 	and.w	r3, r3, #3
 8001806:	3301      	adds	r3, #1
 8001808:	005b      	lsls	r3, r3, #1
 800180a:	643b      	str	r3, [r7, #64]	@ 0x40
 800180c:	6cfa      	ldr	r2, [r7, #76]	@ 0x4c
 800180e:	6c3b      	ldr	r3, [r7, #64]	@ 0x40
 8001810:	fbb2 f3f3 	udiv	r3, r2, r3
 8001814:	64bb      	str	r3, [r7, #72]	@ 0x48
 8001816:	e002      	b.n	800181e <HAL_RCC_GetSysClockFreq+0x1f2>
 8001818:	4b05      	ldr	r3, [pc, #20]	@ (8001830 <HAL_RCC_GetSysClockFreq+0x204>)
 800181a:	64bb      	str	r3, [r7, #72]	@ 0x48
 800181c:	bf00      	nop
 800181e:	6cbb      	ldr	r3, [r7, #72]	@ 0x48
 8001820:	4618      	mov	r0, r3
 8001822:	3750      	adds	r7, #80	@ 0x50
 8001824:	46bd      	mov	sp, r7
 8001826:	e8bd 8fb0 	ldmia.w	sp!, {r4, r5, r7, r8, r9, sl, fp, pc}
 800182a:	bf00      	nop
 800182c:	40023800 	.word	0x40023800
 8001830:	00f42400 	.word	0x00f42400
 8001834:	007a1200 	.word	0x007a1200

08001838 <HAL_RCC_GetHCLKFreq>:
 8001838:	b480      	push	{r7}
 800183a:	af00      	add	r7, sp, #0
 800183c:	4b03      	ldr	r3, [pc, #12]	@ (800184c <HAL_RCC_GetHCLKFreq+0x14>)
 800183e:	681b      	ldr	r3, [r3, #0]
 8001840:	4618      	mov	r0, r3
 8001842:	46bd      	mov	sp, r7
 8001844:	f85d 7b04 	ldr.w	r7, [sp], #4
 8001848:	4770      	bx	lr
 800184a:	bf00      	nop
 800184c:	20000000 	.word	0x20000000

08001850 <HAL_RCC_GetPCLK1Freq>:
 8001850:	b580      	push	{r7, lr}
 8001852:	af00      	add	r7, sp, #0
 8001854:	f7ff fff0 	bl	8001838 <HAL_RCC_GetHCLKFreq>
 8001858:	4602      	mov	r2, r0
 800185a:	4b05      	ldr	r3, [pc, #20]	@ (8001870 <HAL_RCC_GetPCLK1Freq+0x20>)
 800185c:	689b      	ldr	r3, [r3, #8]
 800185e:	0a9b      	lsrs	r3, r3, #10
 8001860:	f003 0307 	and.w	r3, r3, #7
 8001864:	4903      	ldr	r1, [pc, #12]	@ (8001874 <HAL_RCC_GetPCLK1Freq+0x24>)
 8001866:	5ccb      	ldrb	r3, [r1, r3]
 8001868:	fa22 f303 	lsr.w	r3, r2, r3
 800186c:	4618      	mov	r0, r3
 800186e:	bd80      	pop	{r7, pc}
 8001870:	40023800 	.word	0x40023800
 8001874:	08004cf8 	.word	0x08004cf8

08001878 <HAL_RCC_GetPCLK2Freq>:
 8001878:	b580      	push	{r7, lr}
 800187a:	af00      	add	r7, sp, #0
 800187c:	f7ff ffdc 	bl	8001838 <HAL_RCC_GetHCLKFreq>
 8001880:	4602      	mov	r2, r0
 8001882:	4b05      	ldr	r3, [pc, #20]	@ (8001898 <HAL_RCC_GetPCLK2Freq+0x20>)
 8001884:	689b      	ldr	r3, [r3, #8]
 8001886:	0b5b      	lsrs	r3, r3, #13
 8001888:	f003 0307 	and.w	r3, r3, #7
 800188c:	4903      	ldr	r1, [pc, #12]	@ (800189c <HAL_RCC_GetPCLK2Freq+0x24>)
 800188e:	5ccb      	ldrb	r3, [r1, r3]
 8001890:	fa22 f303 	lsr.w	r3, r2, r3
 8001894:	4618      	mov	r0, r3
 8001896:	bd80      	pop	{r7, pc}
 8001898:	40023800 	.word	0x40023800
 800189c:	08004cf8 	.word	0x08004cf8

080018a0 <HAL_RCC_GetClockConfig>:
 80018a0:	b480      	push	{r7}
 80018a2:	b083      	sub	sp, #12
 80018a4:	af00      	add	r7, sp, #0
 80018a6:	6078      	str	r0, [r7, #4]
 80018a8:	6039      	str	r1, [r7, #0]
 80018aa:	687b      	ldr	r3, [r7, #4]
 80018ac:	220f      	movs	r2, #15
 80018ae:	601a      	str	r2, [r3, #0]
 80018b0:	4b12      	ldr	r3, [pc, #72]	@ (80018fc <HAL_RCC_GetClockConfig+0x5c>)
 80018b2:	689b      	ldr	r3, [r3, #8]
 80018b4:	f003 0203 	and.w	r2, r3, #3
 80018b8:	687b      	ldr	r3, [r7, #4]
 80018ba:	605a      	str	r2, [r3, #4]
 80018bc:	4b0f      	ldr	r3, [pc, #60]	@ (80018fc <HAL_RCC_GetClockConfig+0x5c>)
 80018be:	689b      	ldr	r3, [r3, #8]
 80018c0:	f003 02f0 	and.w	r2, r3, #240	@ 0xf0
 80018c4:	687b      	ldr	r3, [r7, #4]
 80018c6:	609a      	str	r2, [r3, #8]
 80018c8:	4b0c      	ldr	r3, [pc, #48]	@ (80018fc <HAL_RCC_GetClockConfig+0x5c>)
 80018ca:	689b      	ldr	r3, [r3, #8]
 80018cc:	f403 52e0 	and.w	r2, r3, #7168	@ 0x1c00
 80018d0:	687b      	ldr	r3, [r7, #4]
 80018d2:	60da      	str	r2, [r3, #12]
 80018d4:	4b09      	ldr	r3, [pc, #36]	@ (80018fc <HAL_RCC_GetClockConfig+0x5c>)
 80018d6:	689b      	ldr	r3, [r3, #8]
 80018d8:	08db      	lsrs	r3, r3, #3
 80018da:	f403 52e0 	and.w	r2, r3, #7168	@ 0x1c00
 80018de:	687b      	ldr	r3, [r7, #4]
 80018e0:	611a      	str	r2, [r3, #16]
 80018e2:	4b07      	ldr	r3, [pc, #28]	@ (8001900 <HAL_RCC_GetClockConfig+0x60>)
 80018e4:	681b      	ldr	r3, [r3, #0]
 80018e6:	f003 0207 	and.w	r2, r3, #7
 80018ea:	683b      	ldr	r3, [r7, #0]
 80018ec:	601a      	str	r2, [r3, #0]
 80018ee:	bf00      	nop
 80018f0:	370c      	adds	r7, #12
 80018f2:	46bd      	mov	sp, r7
 80018f4:	f85d 7b04 	ldr.w	r7, [sp], #4
 80018f8:	4770      	bx	lr
 80018fa:	bf00      	nop
 80018fc:	40023800 	.word	0x40023800
 8001900:	40023c00 	.word	0x40023c00

08001904 <HAL_TIM_Base_Init>:
 8001904:	b580      	push	{r7, lr}
 8001906:	b082      	sub	sp, #8
 8001908:	af00      	add	r7, sp, #0
 800190a:	6078      	str	r0, [r7, #4]
 800190c:	687b      	ldr	r3, [r7, #4]
 800190e:	2b00      	cmp	r3, #0
 8001910:	d101      	bne.n	8001916 <HAL_TIM_Base_Init+0x12>
 8001912:	2301      	movs	r3, #1
 8001914:	e041      	b.n	800199a <HAL_TIM_Base_Init+0x96>
 8001916:	687b      	ldr	r3, [r7, #4]
 8001918:	f893 303d 	ldrb.w	r3, [r3, #61]	@ 0x3d
 800191c:	b2db      	uxtb	r3, r3
 800191e:	2b00      	cmp	r3, #0
 8001920:	d106      	bne.n	8001930 <HAL_TIM_Base_Init+0x2c>
 8001922:	687b      	ldr	r3, [r7, #4]
 8001924:	2200      	movs	r2, #0
 8001926:	f883 203c 	strb.w	r2, [r3, #60]	@ 0x3c
 800192a:	6878      	ldr	r0, [r7, #4]
 800192c:	f000 f839 	bl	80019a2 <HAL_TIM_Base_MspInit>
 8001930:	687b      	ldr	r3, [r7, #4]
 8001932:	2202      	movs	r2, #2
 8001934:	f883 203d 	strb.w	r2, [r3, #61]	@ 0x3d
 8001938:	687b      	ldr	r3, [r7, #4]
 800193a:	681a      	ldr	r2, [r3, #0]
 800193c:	687b      	ldr	r3, [r7, #4]
 800193e:	3304      	adds	r3, #4
 8001940:	4619      	mov	r1, r3
 8001942:	4610      	mov	r0, r2
 8001944:	f000 f9b2 	bl	8001cac <TIM_Base_SetConfig>
 8001948:	687b      	ldr	r3, [r7, #4]
 800194a:	2201      	movs	r2, #1
 800194c:	f883 2046 	strb.w	r2, [r3, #70]	@ 0x46
 8001950:	687b      	ldr	r3, [r7, #4]
 8001952:	2201      	movs	r2, #1
 8001954:	f883 203e 	strb.w	r2, [r3, #62]	@ 0x3e
 8001958:	687b      	ldr	r3, [r7, #4]
 800195a:	2201      	movs	r2, #1
 800195c:	f883 203f 	strb.w	r2, [r3, #63]	@ 0x3f
 8001960:	687b      	ldr	r3, [r7, #4]
 8001962:	2201      	movs	r2, #1
 8001964:	f883 2040 	strb.w	r2, [r3, #64]	@ 0x40
 8001968:	687b      	ldr	r3, [r7, #4]
 800196a:	2201      	movs	r2, #1
 800196c:	f883 2041 	strb.w	r2, [r3, #65]	@ 0x41
 8001970:	687b      	ldr	r3, [r7, #4]
 8001972:	2201      	movs	r2, #1
 8001974:	f883 2042 	strb.w	r2, [r3, #66]	@ 0x42
 8001978:	687b      	ldr	r3, [r7, #4]
 800197a:	2201      	movs	r2, #1
 800197c:	f883 2043 	strb.w	r2, [r3, #67]	@ 0x43
 8001980:	687b      	ldr	r3, [r7, #4]
 8001982:	2201      	movs	r2, #1
 8001984:	f883 2044 	strb.w	r2, [r3, #68]	@ 0x44
 8001988:	687b      	ldr	r3, [r7, #4]
 800198a:	2201      	movs	r2, #1
 800198c:	f883 2045 	strb.w	r2, [r3, #69]	@ 0x45
 8001990:	687b      	ldr	r3, [r7, #4]
 8001992:	2201      	movs	r2, #1
 8001994:	f883 203d 	strb.w	r2, [r3, #61]	@ 0x3d
 8001998:	2300      	movs	r3, #0
 800199a:	4618      	mov	r0, r3
 800199c:	3708      	adds	r7, #8
 800199e:	46bd      	mov	sp, r7
 80019a0:	bd80      	pop	{r7, pc}

080019a2 <HAL_TIM_Base_MspInit>:
 80019a2:	b480      	push	{r7}
 80019a4:	b083      	sub	sp, #12
 80019a6:	af00      	add	r7, sp, #0
 80019a8:	6078      	str	r0, [r7, #4]
 80019aa:	bf00      	nop
 80019ac:	370c      	adds	r7, #12
 80019ae:	46bd      	mov	sp, r7
 80019b0:	f85d 7b04 	ldr.w	r7, [sp], #4
 80019b4:	4770      	bx	lr
	...

080019b8 <HAL_TIM_Base_Start_IT>:
 80019b8:	b480      	push	{r7}
 80019ba:	b085      	sub	sp, #20
 80019bc:	af00      	add	r7, sp, #0
 80019be:	6078      	str	r0, [r7, #4]
 80019c0:	687b      	ldr	r3, [r7, #4]
 80019c2:	f893 303d 	ldrb.w	r3, [r3, #61]	@ 0x3d
 80019c6:	b2db      	uxtb	r3, r3
 80019c8:	2b01      	cmp	r3, #1
 80019ca:	d001      	beq.n	80019d0 <HAL_TIM_Base_Start_IT+0x18>
 80019cc:	2301      	movs	r3, #1
 80019ce:	e044      	b.n	8001a5a <HAL_TIM_Base_Start_IT+0xa2>
 80019d0:	687b      	ldr	r3, [r7, #4]
 80019d2:	2202      	movs	r2, #2
 80019d4:	f883 203d 	strb.w	r2, [r3, #61]	@ 0x3d
 80019d8:	687b      	ldr	r3, [r7, #4]
 80019da:	681b      	ldr	r3, [r3, #0]
 80019dc:	68da      	ldr	r2, [r3, #12]
 80019de:	687b      	ldr	r3, [r7, #4]
 80019e0:	681b      	ldr	r3, [r3, #0]
 80019e2:	f042 0201 	orr.w	r2, r2, #1
 80019e6:	60da      	str	r2, [r3, #12]
 80019e8:	687b      	ldr	r3, [r7, #4]
 80019ea:	681b      	ldr	r3, [r3, #0]
 80019ec:	4a1e      	ldr	r2, [pc, #120]	@ (8001a68 <HAL_TIM_Base_Start_IT+0xb0>)
 80019ee:	4293      	cmp	r3, r2
 80019f0:	d018      	beq.n	8001a24 <HAL_TIM_Base_Start_IT+0x6c>
 80019f2:	687b      	ldr	r3, [r7, #4]
 80019f4:	681b      	ldr	r3, [r3, #0]
 80019f6:	f1b3 4f80 	cmp.w	r3, #1073741824	@ 0x40000000
 80019fa:	d013      	beq.n	8001a24 <HAL_TIM_Base_Start_IT+0x6c>
 80019fc:	687b      	ldr	r3, [r7, #4]
 80019fe:	681b      	ldr	r3, [r3, #0]
 8001a00:	4a1a      	ldr	r2, [pc, #104]	@ (8001a6c <HAL_TIM_Base_Start_IT+0xb4>)
 8001a02:	4293      	cmp	r3, r2
 8001a04:	d00e      	beq.n	8001a24 <HAL_TIM_Base_Start_IT+0x6c>
 8001a06:	687b      	ldr	r3, [r7, #4]
 8001a08:	681b      	ldr	r3, [r3, #0]
 8001a0a:	4a19      	ldr	r2, [pc, #100]	@ (8001a70 <HAL_TIM_Base_Start_IT+0xb8>)
 8001a0c:	4293      	cmp	r3, r2
 8001a0e:	d009      	beq.n	8001a24 <HAL_TIM_Base_Start_IT+0x6c>
 8001a10:	687b      	ldr	r3, [r7, #4]
 8001a12:	681b      	ldr	r3, [r3, #0]
 8001a14:	4a17      	ldr	r2, [pc, #92]	@ (8001a74 <HAL_TIM_Base_Start_IT+0xbc>)
 8001a16:	4293      	cmp	r3, r2
 8001a18:	d004      	beq.n	8001a24 <HAL_TIM_Base_Start_IT+0x6c>
 8001a1a:	687b      	ldr	r3, [r7, #4]
 8001a1c:	681b      	ldr	r3, [r3, #0]
 8001a1e:	4a16      	ldr	r2, [pc, #88]	@ (8001a78 <HAL_TIM_Base_Start_IT+0xc0>)
 8001a20:	4293      	cmp	r3, r2
 8001a22:	d111      	bne.n	8001a48 <HAL_TIM_Base_Start_IT+0x90>
 8001a24:	687b      	ldr	r3, [r7, #4]
 8001a26:	681b      	ldr	r3, [r3, #0]
 8001a28:	689b      	ldr	r3, [r3, #8]
 8001a2a:	f003 0307 	and.w	r3, r3, #7
 8001a2e:	60fb      	str	r3, [r7, #12]
 8001a30:	68fb      	ldr	r3, [r7, #12]
 8001a32:	2b06      	cmp	r3, #6
 8001a34:	d010      	beq.n	8001a58 <HAL_TIM_Base_Start_IT+0xa0>
 8001a36:	687b      	ldr	r3, [r7, #4]
 8001a38:	681b      	ldr	r3, [r3, #0]
 8001a3a:	681a      	ldr	r2, [r3, #0]
 8001a3c:	687b      	ldr	r3, [r7, #4]
 8001a3e:	681b      	ldr	r3, [r3, #0]
 8001a40:	f042 0201 	orr.w	r2, r2, #1
 8001a44:	601a      	str	r2, [r3, #0]
 8001a46:	e007      	b.n	8001a58 <HAL_TIM_Base_Start_IT+0xa0>
 8001a48:	687b      	ldr	r3, [r7, #4]
 8001a4a:	681b      	ldr	r3, [r3, #0]
 8001a4c:	681a      	ldr	r2, [r3, #0]
 8001a4e:	687b      	ldr	r3, [r7, #4]
 8001a50:	681b      	ldr	r3, [r3, #0]
 8001a52:	f042 0201 	orr.w	r2, r2, #1
 8001a56:	601a      	str	r2, [r3, #0]
 8001a58:	2300      	movs	r3, #0
 8001a5a:	4618      	mov	r0, r3
 8001a5c:	3714      	adds	r7, #20
 8001a5e:	46bd      	mov	sp, r7
 8001a60:	f85d 7b04 	ldr.w	r7, [sp], #4
 8001a64:	4770      	bx	lr
 8001a66:	bf00      	nop
 8001a68:	40010000 	.word	0x40010000
 8001a6c:	40000400 	.word	0x40000400
 8001a70:	40000800 	.word	0x40000800
 8001a74:	40000c00 	.word	0x40000c00
 8001a78:	40014000 	.word	0x40014000

08001a7c <HAL_TIM_IRQHandler>:
 8001a7c:	b580      	push	{r7, lr}
 8001a7e:	b084      	sub	sp, #16
 8001a80:	af00      	add	r7, sp, #0
 8001a82:	6078      	str	r0, [r7, #4]
 8001a84:	687b      	ldr	r3, [r7, #4]
 8001a86:	681b      	ldr	r3, [r3, #0]
 8001a88:	68db      	ldr	r3, [r3, #12]
 8001a8a:	60fb      	str	r3, [r7, #12]
 8001a8c:	687b      	ldr	r3, [r7, #4]
 8001a8e:	681b      	ldr	r3, [r3, #0]
 8001a90:	691b      	ldr	r3, [r3, #16]
 8001a92:	60bb      	str	r3, [r7, #8]
 8001a94:	68bb      	ldr	r3, [r7, #8]
 8001a96:	f003 0302 	and.w	r3, r3, #2
 8001a9a:	2b00      	cmp	r3, #0
 8001a9c:	d020      	beq.n	8001ae0 <HAL_TIM_IRQHandler+0x64>
 8001a9e:	68fb      	ldr	r3, [r7, #12]
 8001aa0:	f003 0302 	and.w	r3, r3, #2
 8001aa4:	2b00      	cmp	r3, #0
 8001aa6:	d01b      	beq.n	8001ae0 <HAL_TIM_IRQHandler+0x64>
 8001aa8:	687b      	ldr	r3, [r7, #4]
 8001aaa:	681b      	ldr	r3, [r3, #0]
 8001aac:	f06f 0202 	mvn.w	r2, #2
 8001ab0:	611a      	str	r2, [r3, #16]
 8001ab2:	687b      	ldr	r3, [r7, #4]
 8001ab4:	2201      	movs	r2, #1
 8001ab6:	771a      	strb	r2, [r3, #28]
 8001ab8:	687b      	ldr	r3, [r7, #4]
 8001aba:	681b      	ldr	r3, [r3, #0]
 8001abc:	699b      	ldr	r3, [r3, #24]
 8001abe:	f003 0303 	and.w	r3, r3, #3
 8001ac2:	2b00      	cmp	r3, #0
 8001ac4:	d003      	beq.n	8001ace <HAL_TIM_IRQHandler+0x52>
 8001ac6:	6878      	ldr	r0, [r7, #4]
 8001ac8:	f000 f8d2 	bl	8001c70 <HAL_TIM_IC_CaptureCallback>
 8001acc:	e005      	b.n	8001ada <HAL_TIM_IRQHandler+0x5e>
 8001ace:	6878      	ldr	r0, [r7, #4]
 8001ad0:	f000 f8c4 	bl	8001c5c <HAL_TIM_OC_DelayElapsedCallback>
 8001ad4:	6878      	ldr	r0, [r7, #4]
 8001ad6:	f000 f8d5 	bl	8001c84 <HAL_TIM_PWM_PulseFinishedCallback>
 8001ada:	687b      	ldr	r3, [r7, #4]
 8001adc:	2200      	movs	r2, #0
 8001ade:	771a      	strb	r2, [r3, #28]
 8001ae0:	68bb      	ldr	r3, [r7, #8]
 8001ae2:	f003 0304 	and.w	r3, r3, #4
 8001ae6:	2b00      	cmp	r3, #0
 8001ae8:	d020      	beq.n	8001b2c <HAL_TIM_IRQHandler+0xb0>
 8001aea:	68fb      	ldr	r3, [r7, #12]
 8001aec:	f003 0304 	and.w	r3, r3, #4
 8001af0:	2b00      	cmp	r3, #0
 8001af2:	d01b      	beq.n	8001b2c <HAL_TIM_IRQHandler+0xb0>
 8001af4:	687b      	ldr	r3, [r7, #4]
 8001af6:	681b      	ldr	r3, [r3, #0]
 8001af8:	f06f 0204 	mvn.w	r2, #4
 8001afc:	611a      	str	r2, [r3, #16]
 8001afe:	687b      	ldr	r3, [r7, #4]
 8001b00:	2202      	movs	r2, #2
 8001b02:	771a      	strb	r2, [r3, #28]
 8001b04:	687b      	ldr	r3, [r7, #4]
 8001b06:	681b      	ldr	r3, [r3, #0]
 8001b08:	699b      	ldr	r3, [r3, #24]
 8001b0a:	f403 7340 	and.w	r3, r3, #768	@ 0x300
 8001b0e:	2b00      	cmp	r3, #0
 8001b10:	d003      	beq.n	8001b1a <HAL_TIM_IRQHandler+0x9e>
 8001b12:	6878      	ldr	r0, [r7, #4]
 8001b14:	f000 f8ac 	bl	8001c70 <HAL_TIM_IC_CaptureCallback>
 8001b18:	e005      	b.n	8001b26 <HAL_TIM_IRQHandler+0xaa>
 8001b1a:	6878      	ldr	r0, [r7, #4]
 8001b1c:	f000 f89e 	bl	8001c5c <HAL_TIM_OC_DelayElapsedCallback>
 8001b20:	6878      	ldr	r0, [r7, #4]
 8001b22:	f000 f8af 	bl	8001c84 <HAL_TIM_PWM_PulseFinishedCallback>
 8001b26:	687b      	ldr	r3, [r7, #4]
 8001b28:	2200      	movs	r2, #0
 8001b2a:	771a      	strb	r2, [r3, #28]
 8001b2c:	68bb      	ldr	r3, [r7, #8]
 8001b2e:	f003 0308 	and.w	r3, r3, #8
 8001b32:	2b00      	cmp	r3, #0
 8001b34:	d020      	beq.n	8001b78 <HAL_TIM_IRQHandler+0xfc>
 8001b36:	68fb      	ldr	r3, [r7, #12]
 8001b38:	f003 0308 	and.w	r3, r3, #8
 8001b3c:	2b00      	cmp	r3, #0
 8001b3e:	d01b      	beq.n	8001b78 <HAL_TIM_IRQHandler+0xfc>
 8001b40:	687b      	ldr	r3, [r7, #4]
 8001b42:	681b      	ldr	r3, [r3, #0]
 8001b44:	f06f 0208 	mvn.w	r2, #8
 8001b48:	611a      	str	r2, [r3, #16]
 8001b4a:	687b      	ldr	r3, [r7, #4]
 8001b4c:	2204      	movs	r2, #4
 8001b4e:	771a      	strb	r2, [r3, #28]
 8001b50:	687b      	ldr	r3, [r7, #4]
 8001b52:	681b      	ldr	r3, [r3, #0]
 8001b54:	69db      	ldr	r3, [r3, #28]
 8001b56:	f003 0303 	and.w	r3, r3, #3
 8001b5a:	2b00      	cmp	r3, #0
 8001b5c:	d003      	beq.n	8001b66 <HAL_TIM_IRQHandler+0xea>
 8001b5e:	6878      	ldr	r0, [r7, #4]
 8001b60:	f000 f886 	bl	8001c70 <HAL_TIM_IC_CaptureCallback>
 8001b64:	e005      	b.n	8001b72 <HAL_TIM_IRQHandler+0xf6>
 8001b66:	6878      	ldr	r0, [r7, #4]
 8001b68:	f000 f878 	bl	8001c5c <HAL_TIM_OC_DelayElapsedCallback>
 8001b6c:	6878      	ldr	r0, [r7, #4]
 8001b6e:	f000 f889 	bl	8001c84 <HAL_TIM_PWM_PulseFinishedCallback>
 8001b72:	687b      	ldr	r3, [r7, #4]
 8001b74:	2200      	movs	r2, #0
 8001b76:	771a      	strb	r2, [r3, #28]
 8001b78:	68bb      	ldr	r3, [r7, #8]
 8001b7a:	f003 0310 	and.w	r3, r3, #16
 8001b7e:	2b00      	cmp	r3, #0
 8001b80:	d020      	beq.n	8001bc4 <HAL_TIM_IRQHandler+0x148>
 8001b82:	68fb      	ldr	r3, [r7, #12]
 8001b84:	f003 0310 	and.w	r3, r3, #16
 8001b88:	2b00      	cmp	r3, #0
 8001b8a:	d01b      	beq.n	8001bc4 <HAL_TIM_IRQHandler+0x148>
 8001b8c:	687b      	ldr	r3, [r7, #4]
 8001b8e:	681b      	ldr	r3, [r3, #0]
 8001b90:	f06f 0210 	mvn.w	r2, #16
 8001b94:	611a      	str	r2, [r3, #16]
 8001b96:	687b      	ldr	r3, [r7, #4]
 8001b98:	2208      	movs	r2, #8
 8001b9a:	771a      	strb	r2, [r3, #28]
 8001b9c:	687b      	ldr	r3, [r7, #4]
 8001b9e:	681b      	ldr	r3, [r3, #0]
 8001ba0:	69db      	ldr	r3, [r3, #28]
 8001ba2:	f403 7340 	and.w	r3, r3, #768	@ 0x300
 8001ba6:	2b00      	cmp	r3, #0
 8001ba8:	d003      	beq.n	8001bb2 <HAL_TIM_IRQHandler+0x136>
 8001baa:	6878      	ldr	r0, [r7, #4]
 8001bac:	f000 f860 	bl	8001c70 <HAL_TIM_IC_CaptureCallback>
 8001bb0:	e005      	b.n	8001bbe <HAL_TIM_IRQHandler+0x142>
 8001bb2:	6878      	ldr	r0, [r7, #4]
 8001bb4:	f000 f852 	bl	8001c5c <HAL_TIM_OC_DelayElapsedCallback>
 8001bb8:	6878      	ldr	r0, [r7, #4]
 8001bba:	f000 f863 	bl	8001c84 <HAL_TIM_PWM_PulseFinishedCallback>
 8001bbe:	687b      	ldr	r3, [r7, #4]
 8001bc0:	2200      	movs	r2, #0
 8001bc2:	771a      	strb	r2, [r3, #28]
 8001bc4:	68bb      	ldr	r3, [r7, #8]
 8001bc6:	f003 0301 	and.w	r3, r3, #1
 8001bca:	2b00      	cmp	r3, #0
 8001bcc:	d00c      	beq.n	8001be8 <HAL_TIM_IRQHandler+0x16c>
 8001bce:	68fb      	ldr	r3, [r7, #12]
 8001bd0:	f003 0301 	and.w	r3, r3, #1
 8001bd4:	2b00      	cmp	r3, #0
 8001bd6:	d007      	beq.n	8001be8 <HAL_TIM_IRQHandler+0x16c>
 8001bd8:	687b      	ldr	r3, [r7, #4]
 8001bda:	681b      	ldr	r3, [r3, #0]
 8001bdc:	f06f 0201 	mvn.w	r2, #1
 8001be0:	611a      	str	r2, [r3, #16]
 8001be2:	6878      	ldr	r0, [r7, #4]
 8001be4:	f7fe fda2 	bl	800072c <HAL_TIM_PeriodElapsedCallback>
 8001be8:	68bb      	ldr	r3, [r7, #8]
 8001bea:	f003 0380 	and.w	r3, r3, #128	@ 0x80
 8001bee:	2b00      	cmp	r3, #0
 8001bf0:	d00c      	beq.n	8001c0c <HAL_TIM_IRQHandler+0x190>
 8001bf2:	68fb      	ldr	r3, [r7, #12]
 8001bf4:	f003 0380 	and.w	r3, r3, #128	@ 0x80
 8001bf8:	2b00      	cmp	r3, #0
 8001bfa:	d007      	beq.n	8001c0c <HAL_TIM_IRQHandler+0x190>
 8001bfc:	687b      	ldr	r3, [r7, #4]
 8001bfe:	681b      	ldr	r3, [r3, #0]
 8001c00:	f06f 0280 	mvn.w	r2, #128	@ 0x80
 8001c04:	611a      	str	r2, [r3, #16]
 8001c06:	6878      	ldr	r0, [r7, #4]
 8001c08:	f000 f8e6 	bl	8001dd8 <HAL_TIMEx_BreakCallback>
 8001c0c:	68bb      	ldr	r3, [r7, #8]
 8001c0e:	f003 0340 	and.w	r3, r3, #64	@ 0x40
 8001c12:	2b00      	cmp	r3, #0
 8001c14:	d00c      	beq.n	8001c30 <HAL_TIM_IRQHandler+0x1b4>
 8001c16:	68fb      	ldr	r3, [r7, #12]
 8001c18:	f003 0340 	and.w	r3, r3, #64	@ 0x40
 8001c1c:	2b00      	cmp	r3, #0
 8001c1e:	d007      	beq.n	8001c30 <HAL_TIM_IRQHandler+0x1b4>
 8001c20:	687b      	ldr	r3, [r7, #4]
 8001c22:	681b      	ldr	r3, [r3, #0]
 8001c24:	f06f 0240 	mvn.w	r2, #64	@ 0x40
 8001c28:	611a      	str	r2, [r3, #16]
 8001c2a:	6878      	ldr	r0, [r7, #4]
 8001c2c:	f000 f834 	bl	8001c98 <HAL_TIM_TriggerCallback>
 8001c30:	68bb      	ldr	r3, [r7, #8]
 8001c32:	f003 0320 	and.w	r3, r3, #32
 8001c36:	2b00      	cmp	r3, #0
 8001c38:	d00c      	beq.n	8001c54 <HAL_TIM_IRQHandler+0x1d8>
 8001c3a:	68fb      	ldr	r3, [r7, #12]
 8001c3c:	f003 0320 	and.w	r3, r3, #32
 8001c40:	2b00      	cmp	r3, #0
 8001c42:	d007      	beq.n	8001c54 <HAL_TIM_IRQHandler+0x1d8>
 8001c44:	687b      	ldr	r3, [r7, #4]
 8001c46:	681b      	ldr	r3, [r3, #0]
 8001c48:	f06f 0220 	mvn.w	r2, #32
 8001c4c:	611a      	str	r2, [r3, #16]
 8001c4e:	6878      	ldr	r0, [r7, #4]
 8001c50:	f000 f8b8 	bl	8001dc4 <HAL_TIMEx_CommutCallback>
 8001c54:	bf00      	nop
 8001c56:	3710      	adds	r7, #16
 8001c58:	46bd      	mov	sp, r7
 8001c5a:	bd80      	pop	{r7, pc}

08001c5c <HAL_TIM_OC_DelayElapsedCallback>:
 8001c5c:	b480      	push	{r7}
 8001c5e:	b083      	sub	sp, #12
 8001c60:	af00      	add	r7, sp, #0
 8001c62:	6078      	str	r0, [r7, #4]
 8001c64:	bf00      	nop
 8001c66:	370c      	adds	r7, #12
 8001c68:	46bd      	mov	sp, r7
 8001c6a:	f85d 7b04 	ldr.w	r7, [sp], #4
 8001c6e:	4770      	bx	lr

08001c70 <HAL_TIM_IC_CaptureCallback>:
 8001c70:	b480      	push	{r7}
 8001c72:	b083      	sub	sp, #12
 8001c74:	af00      	add	r7, sp, #0
 8001c76:	6078      	str	r0, [r7, #4]
 8001c78:	bf00      	nop
 8001c7a:	370c      	adds	r7, #12
 8001c7c:	46bd      	mov	sp, r7
 8001c7e:	f85d 7b04 	ldr.w	r7, [sp], #4
 8001c82:	4770      	bx	lr

08001c84 <HAL_TIM_PWM_PulseFinishedCallback>:
 8001c84:	b480      	push	{r7}
 8001c86:	b083      	sub	sp, #12
 8001c88:	af00      	add	r7, sp, #0
 8001c8a:	6078      	str	r0, [r7, #4]
 8001c8c:	bf00      	nop
 8001c8e:	370c      	adds	r7, #12
 8001c90:	46bd      	mov	sp, r7
 8001c92:	f85d 7b04 	ldr.w	r7, [sp], #4
 8001c96:	4770      	bx	lr

08001c98 <HAL_TIM_TriggerCallback>:
 8001c98:	b480      	push	{r7}
 8001c9a:	b083      	sub	sp, #12
 8001c9c:	af00      	add	r7, sp, #0
 8001c9e:	6078      	str	r0, [r7, #4]
 8001ca0:	bf00      	nop
 8001ca2:	370c      	adds	r7, #12
 8001ca4:	46bd      	mov	sp, r7
 8001ca6:	f85d 7b04 	ldr.w	r7, [sp], #4
 8001caa:	4770      	bx	lr

08001cac <TIM_Base_SetConfig>:
 8001cac:	b480      	push	{r7}
 8001cae:	b085      	sub	sp, #20
 8001cb0:	af00      	add	r7, sp, #0
 8001cb2:	6078      	str	r0, [r7, #4]
 8001cb4:	6039      	str	r1, [r7, #0]
 8001cb6:	687b      	ldr	r3, [r7, #4]
 8001cb8:	681b      	ldr	r3, [r3, #0]
 8001cba:	60fb      	str	r3, [r7, #12]
 8001cbc:	687b      	ldr	r3, [r7, #4]
 8001cbe:	4a3a      	ldr	r2, [pc, #232]	@ (8001da8 <TIM_Base_SetConfig+0xfc>)
 8001cc0:	4293      	cmp	r3, r2
 8001cc2:	d00f      	beq.n	8001ce4 <TIM_Base_SetConfig+0x38>
 8001cc4:	687b      	ldr	r3, [r7, #4]
 8001cc6:	f1b3 4f80 	cmp.w	r3, #1073741824	@ 0x40000000
 8001cca:	d00b      	beq.n	8001ce4 <TIM_Base_SetConfig+0x38>
 8001ccc:	687b      	ldr	r3, [r7, #4]
 8001cce:	4a37      	ldr	r2, [pc, #220]	@ (8001dac <TIM_Base_SetConfig+0x100>)
 8001cd0:	4293      	cmp	r3, r2
 8001cd2:	d007      	beq.n	8001ce4 <TIM_Base_SetConfig+0x38>
 8001cd4:	687b      	ldr	r3, [r7, #4]
 8001cd6:	4a36      	ldr	r2, [pc, #216]	@ (8001db0 <TIM_Base_SetConfig+0x104>)
 8001cd8:	4293      	cmp	r3, r2
 8001cda:	d003      	beq.n	8001ce4 <TIM_Base_SetConfig+0x38>
 8001cdc:	687b      	ldr	r3, [r7, #4]
 8001cde:	4a35      	ldr	r2, [pc, #212]	@ (8001db4 <TIM_Base_SetConfig+0x108>)
 8001ce0:	4293      	cmp	r3, r2
 8001ce2:	d108      	bne.n	8001cf6 <TIM_Base_SetConfig+0x4a>
 8001ce4:	68fb      	ldr	r3, [r7, #12]
 8001ce6:	f023 0370 	bic.w	r3, r3, #112	@ 0x70
 8001cea:	60fb      	str	r3, [r7, #12]
 8001cec:	683b      	ldr	r3, [r7, #0]
 8001cee:	685b      	ldr	r3, [r3, #4]
 8001cf0:	68fa      	ldr	r2, [r7, #12]
 8001cf2:	4313      	orrs	r3, r2
 8001cf4:	60fb      	str	r3, [r7, #12]
 8001cf6:	687b      	ldr	r3, [r7, #4]
 8001cf8:	4a2b      	ldr	r2, [pc, #172]	@ (8001da8 <TIM_Base_SetConfig+0xfc>)
 8001cfa:	4293      	cmp	r3, r2
 8001cfc:	d01b      	beq.n	8001d36 <TIM_Base_SetConfig+0x8a>
 8001cfe:	687b      	ldr	r3, [r7, #4]
 8001d00:	f1b3 4f80 	cmp.w	r3, #1073741824	@ 0x40000000
 8001d04:	d017      	beq.n	8001d36 <TIM_Base_SetConfig+0x8a>
 8001d06:	687b      	ldr	r3, [r7, #4]
 8001d08:	4a28      	ldr	r2, [pc, #160]	@ (8001dac <TIM_Base_SetConfig+0x100>)
 8001d0a:	4293      	cmp	r3, r2
 8001d0c:	d013      	beq.n	8001d36 <TIM_Base_SetConfig+0x8a>
 8001d0e:	687b      	ldr	r3, [r7, #4]
 8001d10:	4a27      	ldr	r2, [pc, #156]	@ (8001db0 <TIM_Base_SetConfig+0x104>)
 8001d12:	4293      	cmp	r3, r2
 8001d14:	d00f      	beq.n	8001d36 <TIM_Base_SetConfig+0x8a>
 8001d16:	687b      	ldr	r3, [r7, #4]
 8001d18:	4a26      	ldr	r2, [pc, #152]	@ (8001db4 <TIM_Base_SetConfig+0x108>)
 8001d1a:	4293      	cmp	r3, r2
 8001d1c:	d00b      	beq.n	8001d36 <TIM_Base_SetConfig+0x8a>
 8001d1e:	687b      	ldr	r3, [r7, #4]
 8001d20:	4a25      	ldr	r2, [pc, #148]	@ (8001db8 <TIM_Base_SetConfig+0x10c>)
 8001d22:	4293      	cmp	r3, r2
 8001d24:	d007      	beq.n	8001d36 <TIM_Base_SetConfig+0x8a>
 8001d26:	687b      	ldr	r3, [r7, #4]
 8001d28:	4a24      	ldr	r2, [pc, #144]	@ (8001dbc <TIM_Base_SetConfig+0x110>)
 8001d2a:	4293      	cmp	r3, r2
 8001d2c:	d003      	beq.n	8001d36 <TIM_Base_SetConfig+0x8a>
 8001d2e:	687b      	ldr	r3, [r7, #4]
 8001d30:	4a23      	ldr	r2, [pc, #140]	@ (8001dc0 <TIM_Base_SetConfig+0x114>)
 8001d32:	4293      	cmp	r3, r2
 8001d34:	d108      	bne.n	8001d48 <TIM_Base_SetConfig+0x9c>
 8001d36:	68fb      	ldr	r3, [r7, #12]
 8001d38:	f423 7340 	bic.w	r3, r3, #768	@ 0x300
 8001d3c:	60fb      	str	r3, [r7, #12]
 8001d3e:	683b      	ldr	r3, [r7, #0]
 8001d40:	68db      	ldr	r3, [r3, #12]
 8001d42:	68fa      	ldr	r2, [r7, #12]
 8001d44:	4313      	orrs	r3, r2
 8001d46:	60fb      	str	r3, [r7, #12]
 8001d48:	68fb      	ldr	r3, [r7, #12]
 8001d4a:	f023 0280 	bic.w	r2, r3, #128	@ 0x80
 8001d4e:	683b      	ldr	r3, [r7, #0]
 8001d50:	695b      	ldr	r3, [r3, #20]
 8001d52:	4313      	orrs	r3, r2
 8001d54:	60fb      	str	r3, [r7, #12]
 8001d56:	687b      	ldr	r3, [r7, #4]
 8001d58:	68fa      	ldr	r2, [r7, #12]
 8001d5a:	601a      	str	r2, [r3, #0]
 8001d5c:	683b      	ldr	r3, [r7, #0]
 8001d5e:	689a      	ldr	r2, [r3, #8]
 8001d60:	687b      	ldr	r3, [r7, #4]
 8001d62:	62da      	str	r2, [r3, #44]	@ 0x2c
 8001d64:	683b      	ldr	r3, [r7, #0]
 8001d66:	681a      	ldr	r2, [r3, #0]
 8001d68:	687b      	ldr	r3, [r7, #4]
 8001d6a:	629a      	str	r2, [r3, #40]	@ 0x28
 8001d6c:	687b      	ldr	r3, [r7, #4]
 8001d6e:	4a0e      	ldr	r2, [pc, #56]	@ (8001da8 <TIM_Base_SetConfig+0xfc>)
 8001d70:	4293      	cmp	r3, r2
 8001d72:	d103      	bne.n	8001d7c <TIM_Base_SetConfig+0xd0>
 8001d74:	683b      	ldr	r3, [r7, #0]
 8001d76:	691a      	ldr	r2, [r3, #16]
 8001d78:	687b      	ldr	r3, [r7, #4]
 8001d7a:	631a      	str	r2, [r3, #48]	@ 0x30
 8001d7c:	687b      	ldr	r3, [r7, #4]
 8001d7e:	2201      	movs	r2, #1
 8001d80:	615a      	str	r2, [r3, #20]
 8001d82:	687b      	ldr	r3, [r7, #4]
 8001d84:	691b      	ldr	r3, [r3, #16]
 8001d86:	f003 0301 	and.w	r3, r3, #1
 8001d8a:	2b01      	cmp	r3, #1
 8001d8c:	d105      	bne.n	8001d9a <TIM_Base_SetConfig+0xee>
 8001d8e:	687b      	ldr	r3, [r7, #4]
 8001d90:	691b      	ldr	r3, [r3, #16]
 8001d92:	f023 0201 	bic.w	r2, r3, #1
 8001d96:	687b      	ldr	r3, [r7, #4]
 8001d98:	611a      	str	r2, [r3, #16]
 8001d9a:	bf00      	nop
 8001d9c:	3714      	adds	r7, #20
 8001d9e:	46bd      	mov	sp, r7
 8001da0:	f85d 7b04 	ldr.w	r7, [sp], #4
 8001da4:	4770      	bx	lr
 8001da6:	bf00      	nop
 8001da8:	40010000 	.word	0x40010000
 8001dac:	40000400 	.word	0x40000400
 8001db0:	40000800 	.word	0x40000800
 8001db4:	40000c00 	.word	0x40000c00
 8001db8:	40014000 	.word	0x40014000
 8001dbc:	40014400 	.word	0x40014400
 8001dc0:	40014800 	.word	0x40014800

08001dc4 <HAL_TIMEx_CommutCallback>:
 8001dc4:	b480      	push	{r7}
 8001dc6:	b083      	sub	sp, #12
 8001dc8:	af00      	add	r7, sp, #0
 8001dca:	6078      	str	r0, [r7, #4]
 8001dcc:	bf00      	nop
 8001dce:	370c      	adds	r7, #12
 8001dd0:	46bd      	mov	sp, r7
 8001dd2:	f85d 7b04 	ldr.w	r7, [sp], #4
 8001dd6:	4770      	bx	lr

08001dd8 <HAL_TIMEx_BreakCallback>:
 8001dd8:	b480      	push	{r7}
 8001dda:	b083      	sub	sp, #12
 8001ddc:	af00      	add	r7, sp, #0
 8001dde:	6078      	str	r0, [r7, #4]
 8001de0:	bf00      	nop
 8001de2:	370c      	adds	r7, #12
 8001de4:	46bd      	mov	sp, r7
 8001de6:	f85d 7b04 	ldr.w	r7, [sp], #4
 8001dea:	4770      	bx	lr

08001dec <HAL_UART_Init>:
 8001dec:	b580      	push	{r7, lr}
 8001dee:	b082      	sub	sp, #8
 8001df0:	af00      	add	r7, sp, #0
 8001df2:	6078      	str	r0, [r7, #4]
 8001df4:	687b      	ldr	r3, [r7, #4]
 8001df6:	2b00      	cmp	r3, #0
 8001df8:	d101      	bne.n	8001dfe <HAL_UART_Init+0x12>
 8001dfa:	2301      	movs	r3, #1
 8001dfc:	e042      	b.n	8001e84 <HAL_UART_Init+0x98>
 8001dfe:	687b      	ldr	r3, [r7, #4]
 8001e00:	f893 3041 	ldrb.w	r3, [r3, #65]	@ 0x41
 8001e04:	b2db      	uxtb	r3, r3
 8001e06:	2b00      	cmp	r3, #0
 8001e08:	d106      	bne.n	8001e18 <HAL_UART_Init+0x2c>
 8001e0a:	687b      	ldr	r3, [r7, #4]
 8001e0c:	2200      	movs	r2, #0
 8001e0e:	f883 2040 	strb.w	r2, [r3, #64]	@ 0x40
 8001e12:	6878      	ldr	r0, [r7, #4]
 8001e14:	f7fe fcce 	bl	80007b4 <HAL_UART_MspInit>
 8001e18:	687b      	ldr	r3, [r7, #4]
 8001e1a:	2224      	movs	r2, #36	@ 0x24
 8001e1c:	f883 2041 	strb.w	r2, [r3, #65]	@ 0x41
 8001e20:	687b      	ldr	r3, [r7, #4]
 8001e22:	681b      	ldr	r3, [r3, #0]
 8001e24:	68da      	ldr	r2, [r3, #12]
 8001e26:	687b      	ldr	r3, [r7, #4]
 8001e28:	681b      	ldr	r3, [r3, #0]
 8001e2a:	f422 5200 	bic.w	r2, r2, #8192	@ 0x2000
 8001e2e:	60da      	str	r2, [r3, #12]
 8001e30:	6878      	ldr	r0, [r7, #4]
 8001e32:	f000 f82b 	bl	8001e8c <UART_SetConfig>
 8001e36:	687b      	ldr	r3, [r7, #4]
 8001e38:	681b      	ldr	r3, [r3, #0]
 8001e3a:	691a      	ldr	r2, [r3, #16]
 8001e3c:	687b      	ldr	r3, [r7, #4]
 8001e3e:	681b      	ldr	r3, [r3, #0]
 8001e40:	f422 4290 	bic.w	r2, r2, #18432	@ 0x4800
 8001e44:	611a      	str	r2, [r3, #16]
 8001e46:	687b      	ldr	r3, [r7, #4]
 8001e48:	681b      	ldr	r3, [r3, #0]
 8001e4a:	695a      	ldr	r2, [r3, #20]
 8001e4c:	687b      	ldr	r3, [r7, #4]
 8001e4e:	681b      	ldr	r3, [r3, #0]
 8001e50:	f022 022a 	bic.w	r2, r2, #42	@ 0x2a
 8001e54:	615a      	str	r2, [r3, #20]
 8001e56:	687b      	ldr	r3, [r7, #4]
 8001e58:	681b      	ldr	r3, [r3, #0]
 8001e5a:	68da      	ldr	r2, [r3, #12]
 8001e5c:	687b      	ldr	r3, [r7, #4]
 8001e5e:	681b      	ldr	r3, [r3, #0]
 8001e60:	f442 5200 	orr.w	r2, r2, #8192	@ 0x2000
 8001e64:	60da      	str	r2, [r3, #12]
 8001e66:	687b      	ldr	r3, [r7, #4]
 8001e68:	2200      	movs	r2, #0
 8001e6a:	645a      	str	r2, [r3, #68]	@ 0x44
 8001e6c:	687b      	ldr	r3, [r7, #4]
 8001e6e:	2220      	movs	r2, #32
 8001e70:	f883 2041 	strb.w	r2, [r3, #65]	@ 0x41
 8001e74:	687b      	ldr	r3, [r7, #4]
 8001e76:	2220      	movs	r2, #32
 8001e78:	f883 2042 	strb.w	r2, [r3, #66]	@ 0x42
 8001e7c:	687b      	ldr	r3, [r7, #4]
 8001e7e:	2200      	movs	r2, #0
 8001e80:	635a      	str	r2, [r3, #52]	@ 0x34
 8001e82:	2300      	movs	r3, #0
 8001e84:	4618      	mov	r0, r3
 8001e86:	3708      	adds	r7, #8
 8001e88:	46bd      	mov	sp, r7
 8001e8a:	bd80      	pop	{r7, pc}

08001e8c <UART_SetConfig>:
 8001e8c:	e92d 4fb0 	stmdb	sp!, {r4, r5, r7, r8, r9, sl, fp, lr}
 8001e90:	b0c0      	sub	sp, #256	@ 0x100
 8001e92:	af00      	add	r7, sp, #0
 8001e94:	f8c7 00f4 	str.w	r0, [r7, #244]	@ 0xf4
 8001e98:	f8d7 30f4 	ldr.w	r3, [r7, #244]	@ 0xf4
 8001e9c:	681b      	ldr	r3, [r3, #0]
 8001e9e:	691b      	ldr	r3, [r3, #16]
 8001ea0:	f423 5040 	bic.w	r0, r3, #12288	@ 0x3000
 8001ea4:	f8d7 30f4 	ldr.w	r3, [r7, #244]	@ 0xf4
 8001ea8:	68d9      	ldr	r1, [r3, #12]
 8001eaa:	f8d7 30f4 	ldr.w	r3, [r7, #244]	@ 0xf4
 8001eae:	681a      	ldr	r2, [r3, #0]
 8001eb0:	ea40 0301 	orr.w	r3, r0, r1
 8001eb4:	6113      	str	r3, [r2, #16]
 8001eb6:	f8d7 30f4 	ldr.w	r3, [r7, #244]	@ 0xf4
 8001eba:	689a      	ldr	r2, [r3, #8]
 8001ebc:	f8d7 30f4 	ldr.w	r3, [r7, #244]	@ 0xf4
 8001ec0:	691b      	ldr	r3, [r3, #16]
 8001ec2:	431a      	orrs	r2, r3
 8001ec4:	f8d7 30f4 	ldr.w	r3, [r7, #244]	@ 0xf4
 8001ec8:	695b      	ldr	r3, [r3, #20]
 8001eca:	431a      	orrs	r2, r3
 8001ecc:	f8d7 30f4 	ldr.w	r3, [r7, #244]	@ 0xf4
 8001ed0:	69db      	ldr	r3, [r3, #28]
 8001ed2:	4313      	orrs	r3, r2
 8001ed4:	f8c7 30f8 	str.w	r3, [r7, #248]	@ 0xf8
 8001ed8:	f8d7 30f4 	ldr.w	r3, [r7, #244]	@ 0xf4
 8001edc:	681b      	ldr	r3, [r3, #0]
 8001ede:	68db      	ldr	r3, [r3, #12]
 8001ee0:	f423 4116 	bic.w	r1, r3, #38400	@ 0x9600
 8001ee4:	f021 010c 	bic.w	r1, r1, #12
 8001ee8:	f8d7 30f4 	ldr.w	r3, [r7, #244]	@ 0xf4
 8001eec:	681a      	ldr	r2, [r3, #0]
 8001eee:	f8d7 30f8 	ldr.w	r3, [r7, #248]	@ 0xf8
 8001ef2:	430b      	orrs	r3, r1
 8001ef4:	60d3      	str	r3, [r2, #12]
 8001ef6:	f8d7 30f4 	ldr.w	r3, [r7, #244]	@ 0xf4
 8001efa:	681b      	ldr	r3, [r3, #0]
 8001efc:	695b      	ldr	r3, [r3, #20]
 8001efe:	f423 7040 	bic.w	r0, r3, #768	@ 0x300
 8001f02:	f8d7 30f4 	ldr.w	r3, [r7, #244]	@ 0xf4
 8001f06:	6999      	ldr	r1, [r3, #24]
 8001f08:	f8d7 30f4 	ldr.w	r3, [r7, #244]	@ 0xf4
 8001f0c:	681a      	ldr	r2, [r3, #0]
 8001f0e:	ea40 0301 	orr.w	r3, r0, r1
 8001f12:	6153      	str	r3, [r2, #20]
 8001f14:	f8d7 30f4 	ldr.w	r3, [r7, #244]	@ 0xf4
 8001f18:	681a      	ldr	r2, [r3, #0]
 8001f1a:	4b8f      	ldr	r3, [pc, #572]	@ (8002158 <UART_SetConfig+0x2cc>)
 8001f1c:	429a      	cmp	r2, r3
 8001f1e:	d005      	beq.n	8001f2c <UART_SetConfig+0xa0>
 8001f20:	f8d7 30f4 	ldr.w	r3, [r7, #244]	@ 0xf4
 8001f24:	681a      	ldr	r2, [r3, #0]
 8001f26:	4b8d      	ldr	r3, [pc, #564]	@ (800215c <UART_SetConfig+0x2d0>)
 8001f28:	429a      	cmp	r2, r3
 8001f2a:	d104      	bne.n	8001f36 <UART_SetConfig+0xaa>
 8001f2c:	f7ff fca4 	bl	8001878 <HAL_RCC_GetPCLK2Freq>
 8001f30:	f8c7 00fc 	str.w	r0, [r7, #252]	@ 0xfc
 8001f34:	e003      	b.n	8001f3e <UART_SetConfig+0xb2>
 8001f36:	f7ff fc8b 	bl	8001850 <HAL_RCC_GetPCLK1Freq>
 8001f3a:	f8c7 00fc 	str.w	r0, [r7, #252]	@ 0xfc
 8001f3e:	f8d7 30f4 	ldr.w	r3, [r7, #244]	@ 0xf4
 8001f42:	69db      	ldr	r3, [r3, #28]
 8001f44:	f5b3 4f00 	cmp.w	r3, #32768	@ 0x8000
 8001f48:	f040 810c 	bne.w	8002164 <UART_SetConfig+0x2d8>
 8001f4c:	f8d7 30fc 	ldr.w	r3, [r7, #252]	@ 0xfc
 8001f50:	2200      	movs	r2, #0
 8001f52:	f8c7 30e8 	str.w	r3, [r7, #232]	@ 0xe8
 8001f56:	f8c7 20ec 	str.w	r2, [r7, #236]	@ 0xec
 8001f5a:	e9d7 453a 	ldrd	r4, r5, [r7, #232]	@ 0xe8
 8001f5e:	4622      	mov	r2, r4
 8001f60:	462b      	mov	r3, r5
 8001f62:	1891      	adds	r1, r2, r2
 8001f64:	65b9      	str	r1, [r7, #88]	@ 0x58
 8001f66:	415b      	adcs	r3, r3
 8001f68:	65fb      	str	r3, [r7, #92]	@ 0x5c
 8001f6a:	e9d7 2316 	ldrd	r2, r3, [r7, #88]	@ 0x58
 8001f6e:	4621      	mov	r1, r4
 8001f70:	eb12 0801 	adds.w	r8, r2, r1
 8001f74:	4629      	mov	r1, r5
 8001f76:	eb43 0901 	adc.w	r9, r3, r1
 8001f7a:	f04f 0200 	mov.w	r2, #0
 8001f7e:	f04f 0300 	mov.w	r3, #0
 8001f82:	ea4f 03c9 	mov.w	r3, r9, lsl #3
 8001f86:	ea43 7358 	orr.w	r3, r3, r8, lsr #29
 8001f8a:	ea4f 02c8 	mov.w	r2, r8, lsl #3
 8001f8e:	4690      	mov	r8, r2
 8001f90:	4699      	mov	r9, r3
 8001f92:	4623      	mov	r3, r4
 8001f94:	eb18 0303 	adds.w	r3, r8, r3
 8001f98:	f8c7 30e0 	str.w	r3, [r7, #224]	@ 0xe0
 8001f9c:	462b      	mov	r3, r5
 8001f9e:	eb49 0303 	adc.w	r3, r9, r3
 8001fa2:	f8c7 30e4 	str.w	r3, [r7, #228]	@ 0xe4
 8001fa6:	f8d7 30f4 	ldr.w	r3, [r7, #244]	@ 0xf4
 8001faa:	685b      	ldr	r3, [r3, #4]
 8001fac:	2200      	movs	r2, #0
 8001fae:	f8c7 30d8 	str.w	r3, [r7, #216]	@ 0xd8
 8001fb2:	f8c7 20dc 	str.w	r2, [r7, #220]	@ 0xdc
 8001fb6:	e9d7 1236 	ldrd	r1, r2, [r7, #216]	@ 0xd8
 8001fba:	460b      	mov	r3, r1
 8001fbc:	18db      	adds	r3, r3, r3
 8001fbe:	653b      	str	r3, [r7, #80]	@ 0x50
 8001fc0:	4613      	mov	r3, r2
 8001fc2:	eb42 0303 	adc.w	r3, r2, r3
 8001fc6:	657b      	str	r3, [r7, #84]	@ 0x54
 8001fc8:	e9d7 2314 	ldrd	r2, r3, [r7, #80]	@ 0x50
 8001fcc:	e9d7 0138 	ldrd	r0, r1, [r7, #224]	@ 0xe0
 8001fd0:	f7fe f906 	bl	80001e0 <__aeabi_uldivmod>
 8001fd4:	4602      	mov	r2, r0
 8001fd6:	460b      	mov	r3, r1
 8001fd8:	4b61      	ldr	r3, [pc, #388]	@ (8002160 <UART_SetConfig+0x2d4>)
 8001fda:	fba3 2302 	umull	r2, r3, r3, r2
 8001fde:	095b      	lsrs	r3, r3, #5
 8001fe0:	011c      	lsls	r4, r3, #4
 8001fe2:	f8d7 30fc 	ldr.w	r3, [r7, #252]	@ 0xfc
 8001fe6:	2200      	movs	r2, #0
 8001fe8:	f8c7 30d0 	str.w	r3, [r7, #208]	@ 0xd0
 8001fec:	f8c7 20d4 	str.w	r2, [r7, #212]	@ 0xd4
 8001ff0:	e9d7 8934 	ldrd	r8, r9, [r7, #208]	@ 0xd0
 8001ff4:	4642      	mov	r2, r8
 8001ff6:	464b      	mov	r3, r9
 8001ff8:	1891      	adds	r1, r2, r2
 8001ffa:	64b9      	str	r1, [r7, #72]	@ 0x48
 8001ffc:	415b      	adcs	r3, r3
 8001ffe:	64fb      	str	r3, [r7, #76]	@ 0x4c
 8002000:	e9d7 2312 	ldrd	r2, r3, [r7, #72]	@ 0x48
 8002004:	4641      	mov	r1, r8
 8002006:	eb12 0a01 	adds.w	sl, r2, r1
 800200a:	4649      	mov	r1, r9
 800200c:	eb43 0b01 	adc.w	fp, r3, r1
 8002010:	f04f 0200 	mov.w	r2, #0
 8002014:	f04f 0300 	mov.w	r3, #0
 8002018:	ea4f 03cb 	mov.w	r3, fp, lsl #3
 800201c:	ea43 735a 	orr.w	r3, r3, sl, lsr #29
 8002020:	ea4f 02ca 	mov.w	r2, sl, lsl #3
 8002024:	4692      	mov	sl, r2
 8002026:	469b      	mov	fp, r3
 8002028:	4643      	mov	r3, r8
 800202a:	eb1a 0303 	adds.w	r3, sl, r3
 800202e:	f8c7 30c8 	str.w	r3, [r7, #200]	@ 0xc8
 8002032:	464b      	mov	r3, r9
 8002034:	eb4b 0303 	adc.w	r3, fp, r3
 8002038:	f8c7 30cc 	str.w	r3, [r7, #204]	@ 0xcc
 800203c:	f8d7 30f4 	ldr.w	r3, [r7, #244]	@ 0xf4
 8002040:	685b      	ldr	r3, [r3, #4]
 8002042:	2200      	movs	r2, #0
 8002044:	f8c7 30c0 	str.w	r3, [r7, #192]	@ 0xc0
 8002048:	f8c7 20c4 	str.w	r2, [r7, #196]	@ 0xc4
 800204c:	e9d7 1230 	ldrd	r1, r2, [r7, #192]	@ 0xc0
 8002050:	460b      	mov	r3, r1
 8002052:	18db      	adds	r3, r3, r3
 8002054:	643b      	str	r3, [r7, #64]	@ 0x40
 8002056:	4613      	mov	r3, r2
 8002058:	eb42 0303 	adc.w	r3, r2, r3
 800205c:	647b      	str	r3, [r7, #68]	@ 0x44
 800205e:	e9d7 2310 	ldrd	r2, r3, [r7, #64]	@ 0x40
 8002062:	e9d7 0132 	ldrd	r0, r1, [r7, #200]	@ 0xc8
 8002066:	f7fe f8bb 	bl	80001e0 <__aeabi_uldivmod>
 800206a:	4602      	mov	r2, r0
 800206c:	460b      	mov	r3, r1
 800206e:	4611      	mov	r1, r2
 8002070:	4b3b      	ldr	r3, [pc, #236]	@ (8002160 <UART_SetConfig+0x2d4>)
 8002072:	fba3 2301 	umull	r2, r3, r3, r1
 8002076:	095b      	lsrs	r3, r3, #5
 8002078:	2264      	movs	r2, #100	@ 0x64
 800207a:	fb02 f303 	mul.w	r3, r2, r3
 800207e:	1acb      	subs	r3, r1, r3
 8002080:	00db      	lsls	r3, r3, #3
 8002082:	f103 0232 	add.w	r2, r3, #50	@ 0x32
 8002086:	4b36      	ldr	r3, [pc, #216]	@ (8002160 <UART_SetConfig+0x2d4>)
 8002088:	fba3 2302 	umull	r2, r3, r3, r2
 800208c:	095b      	lsrs	r3, r3, #5
 800208e:	005b      	lsls	r3, r3, #1
 8002090:	f403 73f8 	and.w	r3, r3, #496	@ 0x1f0
 8002094:	441c      	add	r4, r3
 8002096:	f8d7 30fc 	ldr.w	r3, [r7, #252]	@ 0xfc
 800209a:	2200      	movs	r2, #0
 800209c:	f8c7 30b8 	str.w	r3, [r7, #184]	@ 0xb8
 80020a0:	f8c7 20bc 	str.w	r2, [r7, #188]	@ 0xbc
 80020a4:	e9d7 892e 	ldrd	r8, r9, [r7, #184]	@ 0xb8
 80020a8:	4642      	mov	r2, r8
 80020aa:	464b      	mov	r3, r9
 80020ac:	1891      	adds	r1, r2, r2
 80020ae:	63b9      	str	r1, [r7, #56]	@ 0x38
 80020b0:	415b      	adcs	r3, r3
 80020b2:	63fb      	str	r3, [r7, #60]	@ 0x3c
 80020b4:	e9d7 230e 	ldrd	r2, r3, [r7, #56]	@ 0x38
 80020b8:	4641      	mov	r1, r8
 80020ba:	1851      	adds	r1, r2, r1
 80020bc:	6339      	str	r1, [r7, #48]	@ 0x30
 80020be:	4649      	mov	r1, r9
 80020c0:	414b      	adcs	r3, r1
 80020c2:	637b      	str	r3, [r7, #52]	@ 0x34
 80020c4:	f04f 0200 	mov.w	r2, #0
 80020c8:	f04f 0300 	mov.w	r3, #0
 80020cc:	e9d7 ab0c 	ldrd	sl, fp, [r7, #48]	@ 0x30
 80020d0:	4659      	mov	r1, fp
 80020d2:	00cb      	lsls	r3, r1, #3
 80020d4:	4651      	mov	r1, sl
 80020d6:	ea43 7351 	orr.w	r3, r3, r1, lsr #29
 80020da:	4651      	mov	r1, sl
 80020dc:	00ca      	lsls	r2, r1, #3
 80020de:	4610      	mov	r0, r2
 80020e0:	4619      	mov	r1, r3
 80020e2:	4603      	mov	r3, r0
 80020e4:	4642      	mov	r2, r8
 80020e6:	189b      	adds	r3, r3, r2
 80020e8:	f8c7 30b0 	str.w	r3, [r7, #176]	@ 0xb0
 80020ec:	464b      	mov	r3, r9
 80020ee:	460a      	mov	r2, r1
 80020f0:	eb42 0303 	adc.w	r3, r2, r3
 80020f4:	f8c7 30b4 	str.w	r3, [r7, #180]	@ 0xb4
 80020f8:	f8d7 30f4 	ldr.w	r3, [r7, #244]	@ 0xf4
 80020fc:	685b      	ldr	r3, [r3, #4]
 80020fe:	2200      	movs	r2, #0
 8002100:	f8c7 30a8 	str.w	r3, [r7, #168]	@ 0xa8
 8002104:	f8c7 20ac 	str.w	r2, [r7, #172]	@ 0xac
 8002108:	e9d7 122a 	ldrd	r1, r2, [r7, #168]	@ 0xa8
 800210c:	460b      	mov	r3, r1
 800210e:	18db      	adds	r3, r3, r3
 8002110:	62bb      	str	r3, [r7, #40]	@ 0x28
 8002112:	4613      	mov	r3, r2
 8002114:	eb42 0303 	adc.w	r3, r2, r3
 8002118:	62fb      	str	r3, [r7, #44]	@ 0x2c
 800211a:	e9d7 230a 	ldrd	r2, r3, [r7, #40]	@ 0x28
 800211e:	e9d7 012c 	ldrd	r0, r1, [r7, #176]	@ 0xb0
 8002122:	f7fe f85d 	bl	80001e0 <__aeabi_uldivmod>
 8002126:	4602      	mov	r2, r0
 8002128:	460b      	mov	r3, r1
 800212a:	4b0d      	ldr	r3, [pc, #52]	@ (8002160 <UART_SetConfig+0x2d4>)
 800212c:	fba3 1302 	umull	r1, r3, r3, r2
 8002130:	095b      	lsrs	r3, r3, #5
 8002132:	2164      	movs	r1, #100	@ 0x64
 8002134:	fb01 f303 	mul.w	r3, r1, r3
 8002138:	1ad3      	subs	r3, r2, r3
 800213a:	00db      	lsls	r3, r3, #3
 800213c:	3332      	adds	r3, #50	@ 0x32
 800213e:	4a08      	ldr	r2, [pc, #32]	@ (8002160 <UART_SetConfig+0x2d4>)
 8002140:	fba2 2303 	umull	r2, r3, r2, r3
 8002144:	095b      	lsrs	r3, r3, #5
 8002146:	f003 0207 	and.w	r2, r3, #7
 800214a:	f8d7 30f4 	ldr.w	r3, [r7, #244]	@ 0xf4
 800214e:	681b      	ldr	r3, [r3, #0]
 8002150:	4422      	add	r2, r4
 8002152:	609a      	str	r2, [r3, #8]
 8002154:	e106      	b.n	8002364 <UART_SetConfig+0x4d8>
 8002156:	bf00      	nop
 8002158:	40011000 	.word	0x40011000
 800215c:	40011400 	.word	0x40011400
 8002160:	51eb851f 	.word	0x51eb851f
 8002164:	f8d7 30fc 	ldr.w	r3, [r7, #252]	@ 0xfc
 8002168:	2200      	movs	r2, #0
 800216a:	f8c7 30a0 	str.w	r3, [r7, #160]	@ 0xa0
 800216e:	f8c7 20a4 	str.w	r2, [r7, #164]	@ 0xa4
 8002172:	e9d7 8928 	ldrd	r8, r9, [r7, #160]	@ 0xa0
 8002176:	4642      	mov	r2, r8
 8002178:	464b      	mov	r3, r9
 800217a:	1891      	adds	r1, r2, r2
 800217c:	6239      	str	r1, [r7, #32]
 800217e:	415b      	adcs	r3, r3
 8002180:	627b      	str	r3, [r7, #36]	@ 0x24
 8002182:	e9d7 2308 	ldrd	r2, r3, [r7, #32]
 8002186:	4641      	mov	r1, r8
 8002188:	1854      	adds	r4, r2, r1
 800218a:	4649      	mov	r1, r9
 800218c:	eb43 0501 	adc.w	r5, r3, r1
 8002190:	f04f 0200 	mov.w	r2, #0
 8002194:	f04f 0300 	mov.w	r3, #0
 8002198:	00eb      	lsls	r3, r5, #3
 800219a:	ea43 7354 	orr.w	r3, r3, r4, lsr #29
 800219e:	00e2      	lsls	r2, r4, #3
 80021a0:	4614      	mov	r4, r2
 80021a2:	461d      	mov	r5, r3
 80021a4:	4643      	mov	r3, r8
 80021a6:	18e3      	adds	r3, r4, r3
 80021a8:	f8c7 3098 	str.w	r3, [r7, #152]	@ 0x98
 80021ac:	464b      	mov	r3, r9
 80021ae:	eb45 0303 	adc.w	r3, r5, r3
 80021b2:	f8c7 309c 	str.w	r3, [r7, #156]	@ 0x9c
 80021b6:	f8d7 30f4 	ldr.w	r3, [r7, #244]	@ 0xf4
 80021ba:	685b      	ldr	r3, [r3, #4]
 80021bc:	2200      	movs	r2, #0
 80021be:	f8c7 3090 	str.w	r3, [r7, #144]	@ 0x90
 80021c2:	f8c7 2094 	str.w	r2, [r7, #148]	@ 0x94
 80021c6:	f04f 0200 	mov.w	r2, #0
 80021ca:	f04f 0300 	mov.w	r3, #0
 80021ce:	e9d7 4524 	ldrd	r4, r5, [r7, #144]	@ 0x90
 80021d2:	4629      	mov	r1, r5
 80021d4:	008b      	lsls	r3, r1, #2
 80021d6:	4621      	mov	r1, r4
 80021d8:	ea43 7391 	orr.w	r3, r3, r1, lsr #30
 80021dc:	4621      	mov	r1, r4
 80021de:	008a      	lsls	r2, r1, #2
 80021e0:	e9d7 0126 	ldrd	r0, r1, [r7, #152]	@ 0x98
 80021e4:	f7fd fffc 	bl	80001e0 <__aeabi_uldivmod>
 80021e8:	4602      	mov	r2, r0
 80021ea:	460b      	mov	r3, r1
 80021ec:	4b60      	ldr	r3, [pc, #384]	@ (8002370 <UART_SetConfig+0x4e4>)
 80021ee:	fba3 2302 	umull	r2, r3, r3, r2
 80021f2:	095b      	lsrs	r3, r3, #5
 80021f4:	011c      	lsls	r4, r3, #4
 80021f6:	f8d7 30fc 	ldr.w	r3, [r7, #252]	@ 0xfc
 80021fa:	2200      	movs	r2, #0
 80021fc:	f8c7 3088 	str.w	r3, [r7, #136]	@ 0x88
 8002200:	f8c7 208c 	str.w	r2, [r7, #140]	@ 0x8c
 8002204:	e9d7 8922 	ldrd	r8, r9, [r7, #136]	@ 0x88
 8002208:	4642      	mov	r2, r8
 800220a:	464b      	mov	r3, r9
 800220c:	1891      	adds	r1, r2, r2
 800220e:	61b9      	str	r1, [r7, #24]
 8002210:	415b      	adcs	r3, r3
 8002212:	61fb      	str	r3, [r7, #28]
 8002214:	e9d7 2306 	ldrd	r2, r3, [r7, #24]
 8002218:	4641      	mov	r1, r8
 800221a:	1851      	adds	r1, r2, r1
 800221c:	6139      	str	r1, [r7, #16]
 800221e:	4649      	mov	r1, r9
 8002220:	414b      	adcs	r3, r1
 8002222:	617b      	str	r3, [r7, #20]
 8002224:	f04f 0200 	mov.w	r2, #0
 8002228:	f04f 0300 	mov.w	r3, #0
 800222c:	e9d7 ab04 	ldrd	sl, fp, [r7, #16]
 8002230:	4659      	mov	r1, fp
 8002232:	00cb      	lsls	r3, r1, #3
 8002234:	4651      	mov	r1, sl
 8002236:	ea43 7351 	orr.w	r3, r3, r1, lsr #29
 800223a:	4651      	mov	r1, sl
 800223c:	00ca      	lsls	r2, r1, #3
 800223e:	4610      	mov	r0, r2
 8002240:	4619      	mov	r1, r3
 8002242:	4603      	mov	r3, r0
 8002244:	4642      	mov	r2, r8
 8002246:	189b      	adds	r3, r3, r2
 8002248:	f8c7 3080 	str.w	r3, [r7, #128]	@ 0x80
 800224c:	464b      	mov	r3, r9
 800224e:	460a      	mov	r2, r1
 8002250:	eb42 0303 	adc.w	r3, r2, r3
 8002254:	f8c7 3084 	str.w	r3, [r7, #132]	@ 0x84
 8002258:	f8d7 30f4 	ldr.w	r3, [r7, #244]	@ 0xf4
 800225c:	685b      	ldr	r3, [r3, #4]
 800225e:	2200      	movs	r2, #0
 8002260:	67bb      	str	r3, [r7, #120]	@ 0x78
 8002262:	67fa      	str	r2, [r7, #124]	@ 0x7c
 8002264:	f04f 0200 	mov.w	r2, #0
 8002268:	f04f 0300 	mov.w	r3, #0
 800226c:	e9d7 891e 	ldrd	r8, r9, [r7, #120]	@ 0x78
 8002270:	4649      	mov	r1, r9
 8002272:	008b      	lsls	r3, r1, #2
 8002274:	4641      	mov	r1, r8
 8002276:	ea43 7391 	orr.w	r3, r3, r1, lsr #30
 800227a:	4641      	mov	r1, r8
 800227c:	008a      	lsls	r2, r1, #2
 800227e:	e9d7 0120 	ldrd	r0, r1, [r7, #128]	@ 0x80
 8002282:	f7fd ffad 	bl	80001e0 <__aeabi_uldivmod>
 8002286:	4602      	mov	r2, r0
 8002288:	460b      	mov	r3, r1
 800228a:	4611      	mov	r1, r2
 800228c:	4b38      	ldr	r3, [pc, #224]	@ (8002370 <UART_SetConfig+0x4e4>)
 800228e:	fba3 2301 	umull	r2, r3, r3, r1
 8002292:	095b      	lsrs	r3, r3, #5
 8002294:	2264      	movs	r2, #100	@ 0x64
 8002296:	fb02 f303 	mul.w	r3, r2, r3
 800229a:	1acb      	subs	r3, r1, r3
 800229c:	011b      	lsls	r3, r3, #4
 800229e:	3332      	adds	r3, #50	@ 0x32
 80022a0:	4a33      	ldr	r2, [pc, #204]	@ (8002370 <UART_SetConfig+0x4e4>)
 80022a2:	fba2 2303 	umull	r2, r3, r2, r3
 80022a6:	095b      	lsrs	r3, r3, #5
 80022a8:	f003 03f0 	and.w	r3, r3, #240	@ 0xf0
 80022ac:	441c      	add	r4, r3
 80022ae:	f8d7 30fc 	ldr.w	r3, [r7, #252]	@ 0xfc
 80022b2:	2200      	movs	r2, #0
 80022b4:	673b      	str	r3, [r7, #112]	@ 0x70
 80022b6:	677a      	str	r2, [r7, #116]	@ 0x74
 80022b8:	e9d7 891c 	ldrd	r8, r9, [r7, #112]	@ 0x70
 80022bc:	4642      	mov	r2, r8
 80022be:	464b      	mov	r3, r9
 80022c0:	1891      	adds	r1, r2, r2
 80022c2:	60b9      	str	r1, [r7, #8]
 80022c4:	415b      	adcs	r3, r3
 80022c6:	60fb      	str	r3, [r7, #12]
 80022c8:	e9d7 2302 	ldrd	r2, r3, [r7, #8]
 80022cc:	4641      	mov	r1, r8
 80022ce:	1851      	adds	r1, r2, r1
 80022d0:	6039      	str	r1, [r7, #0]
 80022d2:	4649      	mov	r1, r9
 80022d4:	414b      	adcs	r3, r1
 80022d6:	607b      	str	r3, [r7, #4]
 80022d8:	f04f 0200 	mov.w	r2, #0
 80022dc:	f04f 0300 	mov.w	r3, #0
 80022e0:	e9d7 ab00 	ldrd	sl, fp, [r7]
 80022e4:	4659      	mov	r1, fp
 80022e6:	00cb      	lsls	r3, r1, #3
 80022e8:	4651      	mov	r1, sl
 80022ea:	ea43 7351 	orr.w	r3, r3, r1, lsr #29
 80022ee:	4651      	mov	r1, sl
 80022f0:	00ca      	lsls	r2, r1, #3
 80022f2:	4610      	mov	r0, r2
 80022f4:	4619      	mov	r1, r3
 80022f6:	4603      	mov	r3, r0
 80022f8:	4642      	mov	r2, r8
 80022fa:	189b      	adds	r3, r3, r2
 80022fc:	66bb      	str	r3, [r7, #104]	@ 0x68
 80022fe:	464b      	mov	r3, r9
 8002300:	460a      	mov	r2, r1
 8002302:	eb42 0303 	adc.w	r3, r2, r3
 8002306:	66fb      	str	r3, [r7, #108]	@ 0x6c
 8002308:	f8d7 30f4 	ldr.w	r3, [r7, #244]	@ 0xf4
 800230c:	685b      	ldr	r3, [r3, #4]
 800230e:	2200      	movs	r2, #0
 8002310:	663b      	str	r3, [r7, #96]	@ 0x60
 8002312:	667a      	str	r2, [r7, #100]	@ 0x64
 8002314:	f04f 0200 	mov.w	r2, #0
 8002318:	f04f 0300 	mov.w	r3, #0
 800231c:	e9d7 8918 	ldrd	r8, r9, [r7, #96]	@ 0x60
 8002320:	4649      	mov	r1, r9
 8002322:	008b      	lsls	r3, r1, #2
 8002324:	4641      	mov	r1, r8
 8002326:	ea43 7391 	orr.w	r3, r3, r1, lsr #30
 800232a:	4641      	mov	r1, r8
 800232c:	008a      	lsls	r2, r1, #2
 800232e:	e9d7 011a 	ldrd	r0, r1, [r7, #104]	@ 0x68
 8002332:	f7fd ff55 	bl	80001e0 <__aeabi_uldivmod>
 8002336:	4602      	mov	r2, r0
 8002338:	460b      	mov	r3, r1
 800233a:	4b0d      	ldr	r3, [pc, #52]	@ (8002370 <UART_SetConfig+0x4e4>)
 800233c:	fba3 1302 	umull	r1, r3, r3, r2
 8002340:	095b      	lsrs	r3, r3, #5
 8002342:	2164      	movs	r1, #100	@ 0x64
 8002344:	fb01 f303 	mul.w	r3, r1, r3
 8002348:	1ad3      	subs	r3, r2, r3
 800234a:	011b      	lsls	r3, r3, #4
 800234c:	3332      	adds	r3, #50	@ 0x32
 800234e:	4a08      	ldr	r2, [pc, #32]	@ (8002370 <UART_SetConfig+0x4e4>)
 8002350:	fba2 2303 	umull	r2, r3, r2, r3
 8002354:	095b      	lsrs	r3, r3, #5
 8002356:	f003 020f 	and.w	r2, r3, #15
 800235a:	f8d7 30f4 	ldr.w	r3, [r7, #244]	@ 0xf4
 800235e:	681b      	ldr	r3, [r3, #0]
 8002360:	4422      	add	r2, r4
 8002362:	609a      	str	r2, [r3, #8]
 8002364:	bf00      	nop
 8002366:	f507 7780 	add.w	r7, r7, #256	@ 0x100
 800236a:	46bd      	mov	sp, r7
 800236c:	e8bd 8fb0 	ldmia.w	sp!, {r4, r5, r7, r8, r9, sl, fp, pc}
 8002370:	51eb851f 	.word	0x51eb851f

08002374 <SysTick_Handler>:
 8002374:	b580      	push	{r7, lr}
 8002376:	af00      	add	r7, sp, #0
 8002378:	4b05      	ldr	r3, [pc, #20]	@ (8002390 <SysTick_Handler+0x1c>)
 800237a:	681b      	ldr	r3, [r3, #0]
 800237c:	f001 fbe0 	bl	8003b40 <xTaskGetSchedulerState>
 8002380:	4603      	mov	r3, r0
 8002382:	2b01      	cmp	r3, #1
 8002384:	d001      	beq.n	800238a <SysTick_Handler+0x16>
 8002386:	f002 f9d7 	bl	8004738 <xPortSysTickHandler>
 800238a:	bf00      	nop
 800238c:	bd80      	pop	{r7, pc}
 800238e:	bf00      	nop
 8002390:	e000e010 	.word	0xe000e010

08002394 <vApplicationGetIdleTaskMemory>:
 8002394:	b480      	push	{r7}
 8002396:	b085      	sub	sp, #20
 8002398:	af00      	add	r7, sp, #0
 800239a:	60f8      	str	r0, [r7, #12]
 800239c:	60b9      	str	r1, [r7, #8]
 800239e:	607a      	str	r2, [r7, #4]
 80023a0:	68fb      	ldr	r3, [r7, #12]
 80023a2:	4a07      	ldr	r2, [pc, #28]	@ (80023c0 <vApplicationGetIdleTaskMemory+0x2c>)
 80023a4:	601a      	str	r2, [r3, #0]
 80023a6:	68bb      	ldr	r3, [r7, #8]
 80023a8:	4a06      	ldr	r2, [pc, #24]	@ (80023c4 <vApplicationGetIdleTaskMemory+0x30>)
 80023aa:	601a      	str	r2, [r3, #0]
 80023ac:	687b      	ldr	r3, [r7, #4]
 80023ae:	2280      	movs	r2, #128	@ 0x80
 80023b0:	601a      	str	r2, [r3, #0]
 80023b2:	bf00      	nop
 80023b4:	3714      	adds	r7, #20
 80023b6:	46bd      	mov	sp, r7
 80023b8:	f85d 7b04 	ldr.w	r7, [sp], #4
 80023bc:	4770      	bx	lr
 80023be:	bf00      	nop
 80023c0:	200000c4 	.word	0x200000c4
 80023c4:	20000120 	.word	0x20000120

080023c8 <vApplicationGetTimerTaskMemory>:
 80023c8:	b480      	push	{r7}
 80023ca:	b085      	sub	sp, #20
 80023cc:	af00      	add	r7, sp, #0
 80023ce:	60f8      	str	r0, [r7, #12]
 80023d0:	60b9      	str	r1, [r7, #8]
 80023d2:	607a      	str	r2, [r7, #4]
 80023d4:	68fb      	ldr	r3, [r7, #12]
 80023d6:	4a07      	ldr	r2, [pc, #28]	@ (80023f4 <vApplicationGetTimerTaskMemory+0x2c>)
 80023d8:	601a      	str	r2, [r3, #0]
 80023da:	68bb      	ldr	r3, [r7, #8]
 80023dc:	4a06      	ldr	r2, [pc, #24]	@ (80023f8 <vApplicationGetTimerTaskMemory+0x30>)
 80023de:	601a      	str	r2, [r3, #0]
 80023e0:	687b      	ldr	r3, [r7, #4]
 80023e2:	f44f 7280 	mov.w	r2, #256	@ 0x100
 80023e6:	601a      	str	r2, [r3, #0]
 80023e8:	bf00      	nop
 80023ea:	3714      	adds	r7, #20
 80023ec:	46bd      	mov	sp, r7
 80023ee:	f85d 7b04 	ldr.w	r7, [sp], #4
 80023f2:	4770      	bx	lr
 80023f4:	20000320 	.word	0x20000320
 80023f8:	2000037c 	.word	0x2000037c

080023fc <vListInitialise>:
 80023fc:	b480      	push	{r7}
 80023fe:	b083      	sub	sp, #12
 8002400:	af00      	add	r7, sp, #0
 8002402:	6078      	str	r0, [r7, #4]
 8002404:	687b      	ldr	r3, [r7, #4]
 8002406:	f103 0208 	add.w	r2, r3, #8
 800240a:	687b      	ldr	r3, [r7, #4]
 800240c:	605a      	str	r2, [r3, #4]
 800240e:	687b      	ldr	r3, [r7, #4]
 8002410:	f04f 32ff 	mov.w	r2, #4294967295
 8002414:	609a      	str	r2, [r3, #8]
 8002416:	687b      	ldr	r3, [r7, #4]
 8002418:	f103 0208 	add.w	r2, r3, #8
 800241c:	687b      	ldr	r3, [r7, #4]
 800241e:	60da      	str	r2, [r3, #12]
 8002420:	687b      	ldr	r3, [r7, #4]
 8002422:	f103 0208 	add.w	r2, r3, #8
 8002426:	687b      	ldr	r3, [r7, #4]
 8002428:	611a      	str	r2, [r3, #16]
 800242a:	687b      	ldr	r3, [r7, #4]
 800242c:	2200      	movs	r2, #0
 800242e:	601a      	str	r2, [r3, #0]
 8002430:	bf00      	nop
 8002432:	370c      	adds	r7, #12
 8002434:	46bd      	mov	sp, r7
 8002436:	f85d 7b04 	ldr.w	r7, [sp], #4
 800243a:	4770      	bx	lr

0800243c <vListInitialiseItem>:
 800243c:	b480      	push	{r7}
 800243e:	b083      	sub	sp, #12
 8002440:	af00      	add	r7, sp, #0
 8002442:	6078      	str	r0, [r7, #4]
 8002444:	687b      	ldr	r3, [r7, #4]
 8002446:	2200      	movs	r2, #0
 8002448:	611a      	str	r2, [r3, #16]
 800244a:	bf00      	nop
 800244c:	370c      	adds	r7, #12
 800244e:	46bd      	mov	sp, r7
 8002450:	f85d 7b04 	ldr.w	r7, [sp], #4
 8002454:	4770      	bx	lr

08002456 <vListInsertEnd>:
 8002456:	b480      	push	{r7}
 8002458:	b085      	sub	sp, #20
 800245a:	af00      	add	r7, sp, #0
 800245c:	6078      	str	r0, [r7, #4]
 800245e:	6039      	str	r1, [r7, #0]
 8002460:	687b      	ldr	r3, [r7, #4]
 8002462:	685b      	ldr	r3, [r3, #4]
 8002464:	60fb      	str	r3, [r7, #12]
 8002466:	683b      	ldr	r3, [r7, #0]
 8002468:	68fa      	ldr	r2, [r7, #12]
 800246a:	605a      	str	r2, [r3, #4]
 800246c:	68fb      	ldr	r3, [r7, #12]
 800246e:	689a      	ldr	r2, [r3, #8]
 8002470:	683b      	ldr	r3, [r7, #0]
 8002472:	609a      	str	r2, [r3, #8]
 8002474:	68fb      	ldr	r3, [r7, #12]
 8002476:	689b      	ldr	r3, [r3, #8]
 8002478:	683a      	ldr	r2, [r7, #0]
 800247a:	605a      	str	r2, [r3, #4]
 800247c:	68fb      	ldr	r3, [r7, #12]
 800247e:	683a      	ldr	r2, [r7, #0]
 8002480:	609a      	str	r2, [r3, #8]
 8002482:	683b      	ldr	r3, [r7, #0]
 8002484:	687a      	ldr	r2, [r7, #4]
 8002486:	611a      	str	r2, [r3, #16]
 8002488:	687b      	ldr	r3, [r7, #4]
 800248a:	681b      	ldr	r3, [r3, #0]
 800248c:	1c5a      	adds	r2, r3, #1
 800248e:	687b      	ldr	r3, [r7, #4]
 8002490:	601a      	str	r2, [r3, #0]
 8002492:	bf00      	nop
 8002494:	3714      	adds	r7, #20
 8002496:	46bd      	mov	sp, r7
 8002498:	f85d 7b04 	ldr.w	r7, [sp], #4
 800249c:	4770      	bx	lr

0800249e <vListInsert>:
 800249e:	b480      	push	{r7}
 80024a0:	b085      	sub	sp, #20
 80024a2:	af00      	add	r7, sp, #0
 80024a4:	6078      	str	r0, [r7, #4]
 80024a6:	6039      	str	r1, [r7, #0]
 80024a8:	683b      	ldr	r3, [r7, #0]
 80024aa:	681b      	ldr	r3, [r3, #0]
 80024ac:	60bb      	str	r3, [r7, #8]
 80024ae:	68bb      	ldr	r3, [r7, #8]
 80024b0:	f1b3 3fff 	cmp.w	r3, #4294967295
 80024b4:	d103      	bne.n	80024be <vListInsert+0x20>
 80024b6:	687b      	ldr	r3, [r7, #4]
 80024b8:	691b      	ldr	r3, [r3, #16]
 80024ba:	60fb      	str	r3, [r7, #12]
 80024bc:	e00c      	b.n	80024d8 <vListInsert+0x3a>
 80024be:	687b      	ldr	r3, [r7, #4]
 80024c0:	3308      	adds	r3, #8
 80024c2:	60fb      	str	r3, [r7, #12]
 80024c4:	e002      	b.n	80024cc <vListInsert+0x2e>
 80024c6:	68fb      	ldr	r3, [r7, #12]
 80024c8:	685b      	ldr	r3, [r3, #4]
 80024ca:	60fb      	str	r3, [r7, #12]
 80024cc:	68fb      	ldr	r3, [r7, #12]
 80024ce:	685b      	ldr	r3, [r3, #4]
 80024d0:	681b      	ldr	r3, [r3, #0]
 80024d2:	68ba      	ldr	r2, [r7, #8]
 80024d4:	429a      	cmp	r2, r3
 80024d6:	d2f6      	bcs.n	80024c6 <vListInsert+0x28>
 80024d8:	68fb      	ldr	r3, [r7, #12]
 80024da:	685a      	ldr	r2, [r3, #4]
 80024dc:	683b      	ldr	r3, [r7, #0]
 80024de:	605a      	str	r2, [r3, #4]
 80024e0:	683b      	ldr	r3, [r7, #0]
 80024e2:	685b      	ldr	r3, [r3, #4]
 80024e4:	683a      	ldr	r2, [r7, #0]
 80024e6:	609a      	str	r2, [r3, #8]
 80024e8:	683b      	ldr	r3, [r7, #0]
 80024ea:	68fa      	ldr	r2, [r7, #12]
 80024ec:	609a      	str	r2, [r3, #8]
 80024ee:	68fb      	ldr	r3, [r7, #12]
 80024f0:	683a      	ldr	r2, [r7, #0]
 80024f2:	605a      	str	r2, [r3, #4]
 80024f4:	683b      	ldr	r3, [r7, #0]
 80024f6:	687a      	ldr	r2, [r7, #4]
 80024f8:	611a      	str	r2, [r3, #16]
 80024fa:	687b      	ldr	r3, [r7, #4]
 80024fc:	681b      	ldr	r3, [r3, #0]
 80024fe:	1c5a      	adds	r2, r3, #1
 8002500:	687b      	ldr	r3, [r7, #4]
 8002502:	601a      	str	r2, [r3, #0]
 8002504:	bf00      	nop
 8002506:	3714      	adds	r7, #20
 8002508:	46bd      	mov	sp, r7
 800250a:	f85d 7b04 	ldr.w	r7, [sp], #4
 800250e:	4770      	bx	lr

08002510 <uxListRemove>:
 8002510:	b480      	push	{r7}
 8002512:	b085      	sub	sp, #20
 8002514:	af00      	add	r7, sp, #0
 8002516:	6078      	str	r0, [r7, #4]
 8002518:	687b      	ldr	r3, [r7, #4]
 800251a:	691b      	ldr	r3, [r3, #16]
 800251c:	60fb      	str	r3, [r7, #12]
 800251e:	687b      	ldr	r3, [r7, #4]
 8002520:	685b      	ldr	r3, [r3, #4]
 8002522:	687a      	ldr	r2, [r7, #4]
 8002524:	6892      	ldr	r2, [r2, #8]
 8002526:	609a      	str	r2, [r3, #8]
 8002528:	687b      	ldr	r3, [r7, #4]
 800252a:	689b      	ldr	r3, [r3, #8]
 800252c:	687a      	ldr	r2, [r7, #4]
 800252e:	6852      	ldr	r2, [r2, #4]
 8002530:	605a      	str	r2, [r3, #4]
 8002532:	68fb      	ldr	r3, [r7, #12]
 8002534:	685b      	ldr	r3, [r3, #4]
 8002536:	687a      	ldr	r2, [r7, #4]
 8002538:	429a      	cmp	r2, r3
 800253a:	d103      	bne.n	8002544 <uxListRemove+0x34>
 800253c:	687b      	ldr	r3, [r7, #4]
 800253e:	689a      	ldr	r2, [r3, #8]
 8002540:	68fb      	ldr	r3, [r7, #12]
 8002542:	605a      	str	r2, [r3, #4]
 8002544:	687b      	ldr	r3, [r7, #4]
 8002546:	2200      	movs	r2, #0
 8002548:	611a      	str	r2, [r3, #16]
 800254a:	68fb      	ldr	r3, [r7, #12]
 800254c:	681b      	ldr	r3, [r3, #0]
 800254e:	1e5a      	subs	r2, r3, #1
 8002550:	68fb      	ldr	r3, [r7, #12]
 8002552:	601a      	str	r2, [r3, #0]
 8002554:	68fb      	ldr	r3, [r7, #12]
 8002556:	681b      	ldr	r3, [r3, #0]
 8002558:	4618      	mov	r0, r3
 800255a:	3714      	adds	r7, #20
 800255c:	46bd      	mov	sp, r7
 800255e:	f85d 7b04 	ldr.w	r7, [sp], #4
 8002562:	4770      	bx	lr

08002564 <xQueueGenericReset>:
 8002564:	b580      	push	{r7, lr}
 8002566:	b084      	sub	sp, #16
 8002568:	af00      	add	r7, sp, #0
 800256a:	6078      	str	r0, [r7, #4]
 800256c:	6039      	str	r1, [r7, #0]
 800256e:	687b      	ldr	r3, [r7, #4]
 8002570:	60fb      	str	r3, [r7, #12]
 8002572:	68fb      	ldr	r3, [r7, #12]
 8002574:	2b00      	cmp	r3, #0
 8002576:	d10b      	bne.n	8002590 <xQueueGenericReset+0x2c>
 8002578:	f04f 0350 	mov.w	r3, #80	@ 0x50
 800257c:	f383 8811 	msr	BASEPRI, r3
 8002580:	f3bf 8f6f 	isb	sy
 8002584:	f3bf 8f4f 	dsb	sy
 8002588:	60bb      	str	r3, [r7, #8]
 800258a:	bf00      	nop
 800258c:	bf00      	nop
 800258e:	e7fd      	b.n	800258c <xQueueGenericReset+0x28>
 8002590:	f002 f842 	bl	8004618 <vPortEnterCritical>
 8002594:	68fb      	ldr	r3, [r7, #12]
 8002596:	681a      	ldr	r2, [r3, #0]
 8002598:	68fb      	ldr	r3, [r7, #12]
 800259a:	6bdb      	ldr	r3, [r3, #60]	@ 0x3c
 800259c:	68f9      	ldr	r1, [r7, #12]
 800259e:	6c09      	ldr	r1, [r1, #64]	@ 0x40
 80025a0:	fb01 f303 	mul.w	r3, r1, r3
 80025a4:	441a      	add	r2, r3
 80025a6:	68fb      	ldr	r3, [r7, #12]
 80025a8:	609a      	str	r2, [r3, #8]
 80025aa:	68fb      	ldr	r3, [r7, #12]
 80025ac:	2200      	movs	r2, #0
 80025ae:	639a      	str	r2, [r3, #56]	@ 0x38
 80025b0:	68fb      	ldr	r3, [r7, #12]
 80025b2:	681a      	ldr	r2, [r3, #0]
 80025b4:	68fb      	ldr	r3, [r7, #12]
 80025b6:	605a      	str	r2, [r3, #4]
 80025b8:	68fb      	ldr	r3, [r7, #12]
 80025ba:	681a      	ldr	r2, [r3, #0]
 80025bc:	68fb      	ldr	r3, [r7, #12]
 80025be:	6bdb      	ldr	r3, [r3, #60]	@ 0x3c
 80025c0:	3b01      	subs	r3, #1
 80025c2:	68f9      	ldr	r1, [r7, #12]
 80025c4:	6c09      	ldr	r1, [r1, #64]	@ 0x40
 80025c6:	fb01 f303 	mul.w	r3, r1, r3
 80025ca:	441a      	add	r2, r3
 80025cc:	68fb      	ldr	r3, [r7, #12]
 80025ce:	60da      	str	r2, [r3, #12]
 80025d0:	68fb      	ldr	r3, [r7, #12]
 80025d2:	22ff      	movs	r2, #255	@ 0xff
 80025d4:	f883 2044 	strb.w	r2, [r3, #68]	@ 0x44
 80025d8:	68fb      	ldr	r3, [r7, #12]
 80025da:	22ff      	movs	r2, #255	@ 0xff
 80025dc:	f883 2045 	strb.w	r2, [r3, #69]	@ 0x45
 80025e0:	683b      	ldr	r3, [r7, #0]
 80025e2:	2b00      	cmp	r3, #0
 80025e4:	d114      	bne.n	8002610 <xQueueGenericReset+0xac>
 80025e6:	68fb      	ldr	r3, [r7, #12]
 80025e8:	691b      	ldr	r3, [r3, #16]
 80025ea:	2b00      	cmp	r3, #0
 80025ec:	d01a      	beq.n	8002624 <xQueueGenericReset+0xc0>
 80025ee:	68fb      	ldr	r3, [r7, #12]
 80025f0:	3310      	adds	r3, #16
 80025f2:	4618      	mov	r0, r3
 80025f4:	f001 f8e4 	bl	80037c0 <xTaskRemoveFromEventList>
 80025f8:	4603      	mov	r3, r0
 80025fa:	2b00      	cmp	r3, #0
 80025fc:	d012      	beq.n	8002624 <xQueueGenericReset+0xc0>
 80025fe:	4b0d      	ldr	r3, [pc, #52]	@ (8002634 <xQueueGenericReset+0xd0>)
 8002600:	f04f 5280 	mov.w	r2, #268435456	@ 0x10000000
 8002604:	601a      	str	r2, [r3, #0]
 8002606:	f3bf 8f4f 	dsb	sy
 800260a:	f3bf 8f6f 	isb	sy
 800260e:	e009      	b.n	8002624 <xQueueGenericReset+0xc0>
 8002610:	68fb      	ldr	r3, [r7, #12]
 8002612:	3310      	adds	r3, #16
 8002614:	4618      	mov	r0, r3
 8002616:	f7ff fef1 	bl	80023fc <vListInitialise>
 800261a:	68fb      	ldr	r3, [r7, #12]
 800261c:	3324      	adds	r3, #36	@ 0x24
 800261e:	4618      	mov	r0, r3
 8002620:	f7ff feec 	bl	80023fc <vListInitialise>
 8002624:	f002 f82a 	bl	800467c <vPortExitCritical>
 8002628:	2301      	movs	r3, #1
 800262a:	4618      	mov	r0, r3
 800262c:	3710      	adds	r7, #16
 800262e:	46bd      	mov	sp, r7
 8002630:	bd80      	pop	{r7, pc}
 8002632:	bf00      	nop
 8002634:	e000ed04 	.word	0xe000ed04

08002638 <xQueueGenericCreateStatic>:
 8002638:	b580      	push	{r7, lr}
 800263a:	b08e      	sub	sp, #56	@ 0x38
 800263c:	af02      	add	r7, sp, #8
 800263e:	60f8      	str	r0, [r7, #12]
 8002640:	60b9      	str	r1, [r7, #8]
 8002642:	607a      	str	r2, [r7, #4]
 8002644:	603b      	str	r3, [r7, #0]
 8002646:	68fb      	ldr	r3, [r7, #12]
 8002648:	2b00      	cmp	r3, #0
 800264a:	d10b      	bne.n	8002664 <xQueueGenericCreateStatic+0x2c>
 800264c:	f04f 0350 	mov.w	r3, #80	@ 0x50
 8002650:	f383 8811 	msr	BASEPRI, r3
 8002654:	f3bf 8f6f 	isb	sy
 8002658:	f3bf 8f4f 	dsb	sy
 800265c:	62bb      	str	r3, [r7, #40]	@ 0x28
 800265e:	bf00      	nop
 8002660:	bf00      	nop
 8002662:	e7fd      	b.n	8002660 <xQueueGenericCreateStatic+0x28>
 8002664:	683b      	ldr	r3, [r7, #0]
 8002666:	2b00      	cmp	r3, #0
 8002668:	d10b      	bne.n	8002682 <xQueueGenericCreateStatic+0x4a>
 800266a:	f04f 0350 	mov.w	r3, #80	@ 0x50
 800266e:	f383 8811 	msr	BASEPRI, r3
 8002672:	f3bf 8f6f 	isb	sy
 8002676:	f3bf 8f4f 	dsb	sy
 800267a:	627b      	str	r3, [r7, #36]	@ 0x24
 800267c:	bf00      	nop
 800267e:	bf00      	nop
 8002680:	e7fd      	b.n	800267e <xQueueGenericCreateStatic+0x46>
 8002682:	687b      	ldr	r3, [r7, #4]
 8002684:	2b00      	cmp	r3, #0
 8002686:	d002      	beq.n	800268e <xQueueGenericCreateStatic+0x56>
 8002688:	68bb      	ldr	r3, [r7, #8]
 800268a:	2b00      	cmp	r3, #0
 800268c:	d001      	beq.n	8002692 <xQueueGenericCreateStatic+0x5a>
 800268e:	2301      	movs	r3, #1
 8002690:	e000      	b.n	8002694 <xQueueGenericCreateStatic+0x5c>
 8002692:	2300      	movs	r3, #0
 8002694:	2b00      	cmp	r3, #0
 8002696:	d10b      	bne.n	80026b0 <xQueueGenericCreateStatic+0x78>
 8002698:	f04f 0350 	mov.w	r3, #80	@ 0x50
 800269c:	f383 8811 	msr	BASEPRI, r3
 80026a0:	f3bf 8f6f 	isb	sy
 80026a4:	f3bf 8f4f 	dsb	sy
 80026a8:	623b      	str	r3, [r7, #32]
 80026aa:	bf00      	nop
 80026ac:	bf00      	nop
 80026ae:	e7fd      	b.n	80026ac <xQueueGenericCreateStatic+0x74>
 80026b0:	687b      	ldr	r3, [r7, #4]
 80026b2:	2b00      	cmp	r3, #0
 80026b4:	d102      	bne.n	80026bc <xQueueGenericCreateStatic+0x84>
 80026b6:	68bb      	ldr	r3, [r7, #8]
 80026b8:	2b00      	cmp	r3, #0
 80026ba:	d101      	bne.n	80026c0 <xQueueGenericCreateStatic+0x88>
 80026bc:	2301      	movs	r3, #1
 80026be:	e000      	b.n	80026c2 <xQueueGenericCreateStatic+0x8a>
 80026c0:	2300      	movs	r3, #0
 80026c2:	2b00      	cmp	r3, #0
 80026c4:	d10b      	bne.n	80026de <xQueueGenericCreateStatic+0xa6>
 80026c6:	f04f 0350 	mov.w	r3, #80	@ 0x50
 80026ca:	f383 8811 	msr	BASEPRI, r3
 80026ce:	f3bf 8f6f 	isb	sy
 80026d2:	f3bf 8f4f 	dsb	sy
 80026d6:	61fb      	str	r3, [r7, #28]
 80026d8:	bf00      	nop
 80026da:	bf00      	nop
 80026dc:	e7fd      	b.n	80026da <xQueueGenericCreateStatic+0xa2>
 80026de:	2350      	movs	r3, #80	@ 0x50
 80026e0:	617b      	str	r3, [r7, #20]
 80026e2:	697b      	ldr	r3, [r7, #20]
 80026e4:	2b50      	cmp	r3, #80	@ 0x50
 80026e6:	d00b      	beq.n	8002700 <xQueueGenericCreateStatic+0xc8>
 80026e8:	f04f 0350 	mov.w	r3, #80	@ 0x50
 80026ec:	f383 8811 	msr	BASEPRI, r3
 80026f0:	f3bf 8f6f 	isb	sy
 80026f4:	f3bf 8f4f 	dsb	sy
 80026f8:	61bb      	str	r3, [r7, #24]
 80026fa:	bf00      	nop
 80026fc:	bf00      	nop
 80026fe:	e7fd      	b.n	80026fc <xQueueGenericCreateStatic+0xc4>
 8002700:	697b      	ldr	r3, [r7, #20]
 8002702:	683b      	ldr	r3, [r7, #0]
 8002704:	62fb      	str	r3, [r7, #44]	@ 0x2c
 8002706:	6afb      	ldr	r3, [r7, #44]	@ 0x2c
 8002708:	2b00      	cmp	r3, #0
 800270a:	d00d      	beq.n	8002728 <xQueueGenericCreateStatic+0xf0>
 800270c:	6afb      	ldr	r3, [r7, #44]	@ 0x2c
 800270e:	2201      	movs	r2, #1
 8002710:	f883 2046 	strb.w	r2, [r3, #70]	@ 0x46
 8002714:	f897 2038 	ldrb.w	r2, [r7, #56]	@ 0x38
 8002718:	6afb      	ldr	r3, [r7, #44]	@ 0x2c
 800271a:	9300      	str	r3, [sp, #0]
 800271c:	4613      	mov	r3, r2
 800271e:	687a      	ldr	r2, [r7, #4]
 8002720:	68b9      	ldr	r1, [r7, #8]
 8002722:	68f8      	ldr	r0, [r7, #12]
 8002724:	f000 f805 	bl	8002732 <prvInitialiseNewQueue>
 8002728:	6afb      	ldr	r3, [r7, #44]	@ 0x2c
 800272a:	4618      	mov	r0, r3
 800272c:	3730      	adds	r7, #48	@ 0x30
 800272e:	46bd      	mov	sp, r7
 8002730:	bd80      	pop	{r7, pc}

08002732 <prvInitialiseNewQueue>:
 8002732:	b580      	push	{r7, lr}
 8002734:	b084      	sub	sp, #16
 8002736:	af00      	add	r7, sp, #0
 8002738:	60f8      	str	r0, [r7, #12]
 800273a:	60b9      	str	r1, [r7, #8]
 800273c:	607a      	str	r2, [r7, #4]
 800273e:	70fb      	strb	r3, [r7, #3]
 8002740:	68bb      	ldr	r3, [r7, #8]
 8002742:	2b00      	cmp	r3, #0
 8002744:	d103      	bne.n	800274e <prvInitialiseNewQueue+0x1c>
 8002746:	69bb      	ldr	r3, [r7, #24]
 8002748:	69ba      	ldr	r2, [r7, #24]
 800274a:	601a      	str	r2, [r3, #0]
 800274c:	e002      	b.n	8002754 <prvInitialiseNewQueue+0x22>
 800274e:	69bb      	ldr	r3, [r7, #24]
 8002750:	687a      	ldr	r2, [r7, #4]
 8002752:	601a      	str	r2, [r3, #0]
 8002754:	69bb      	ldr	r3, [r7, #24]
 8002756:	68fa      	ldr	r2, [r7, #12]
 8002758:	63da      	str	r2, [r3, #60]	@ 0x3c
 800275a:	69bb      	ldr	r3, [r7, #24]
 800275c:	68ba      	ldr	r2, [r7, #8]
 800275e:	641a      	str	r2, [r3, #64]	@ 0x40
 8002760:	2101      	movs	r1, #1
 8002762:	69b8      	ldr	r0, [r7, #24]
 8002764:	f7ff fefe 	bl	8002564 <xQueueGenericReset>
 8002768:	69bb      	ldr	r3, [r7, #24]
 800276a:	78fa      	ldrb	r2, [r7, #3]
 800276c:	f883 204c 	strb.w	r2, [r3, #76]	@ 0x4c
 8002770:	bf00      	nop
 8002772:	3710      	adds	r7, #16
 8002774:	46bd      	mov	sp, r7
 8002776:	bd80      	pop	{r7, pc}

08002778 <xQueueGenericSend>:
 8002778:	b580      	push	{r7, lr}
 800277a:	b08e      	sub	sp, #56	@ 0x38
 800277c:	af00      	add	r7, sp, #0
 800277e:	60f8      	str	r0, [r7, #12]
 8002780:	60b9      	str	r1, [r7, #8]
 8002782:	607a      	str	r2, [r7, #4]
 8002784:	603b      	str	r3, [r7, #0]
 8002786:	2300      	movs	r3, #0
 8002788:	637b      	str	r3, [r7, #52]	@ 0x34
 800278a:	68fb      	ldr	r3, [r7, #12]
 800278c:	633b      	str	r3, [r7, #48]	@ 0x30
 800278e:	6b3b      	ldr	r3, [r7, #48]	@ 0x30
 8002790:	2b00      	cmp	r3, #0
 8002792:	d10b      	bne.n	80027ac <xQueueGenericSend+0x34>
 8002794:	f04f 0350 	mov.w	r3, #80	@ 0x50
 8002798:	f383 8811 	msr	BASEPRI, r3
 800279c:	f3bf 8f6f 	isb	sy
 80027a0:	f3bf 8f4f 	dsb	sy
 80027a4:	62bb      	str	r3, [r7, #40]	@ 0x28
 80027a6:	bf00      	nop
 80027a8:	bf00      	nop
 80027aa:	e7fd      	b.n	80027a8 <xQueueGenericSend+0x30>
 80027ac:	68bb      	ldr	r3, [r7, #8]
 80027ae:	2b00      	cmp	r3, #0
 80027b0:	d103      	bne.n	80027ba <xQueueGenericSend+0x42>
 80027b2:	6b3b      	ldr	r3, [r7, #48]	@ 0x30
 80027b4:	6c1b      	ldr	r3, [r3, #64]	@ 0x40
 80027b6:	2b00      	cmp	r3, #0
 80027b8:	d101      	bne.n	80027be <xQueueGenericSend+0x46>
 80027ba:	2301      	movs	r3, #1
 80027bc:	e000      	b.n	80027c0 <xQueueGenericSend+0x48>
 80027be:	2300      	movs	r3, #0
 80027c0:	2b00      	cmp	r3, #0
 80027c2:	d10b      	bne.n	80027dc <xQueueGenericSend+0x64>
 80027c4:	f04f 0350 	mov.w	r3, #80	@ 0x50
 80027c8:	f383 8811 	msr	BASEPRI, r3
 80027cc:	f3bf 8f6f 	isb	sy
 80027d0:	f3bf 8f4f 	dsb	sy
 80027d4:	627b      	str	r3, [r7, #36]	@ 0x24
 80027d6:	bf00      	nop
 80027d8:	bf00      	nop
 80027da:	e7fd      	b.n	80027d8 <xQueueGenericSend+0x60>
 80027dc:	683b      	ldr	r3, [r7, #0]
 80027de:	2b02      	cmp	r3, #2
 80027e0:	d103      	bne.n	80027ea <xQueueGenericSend+0x72>
 80027e2:	6b3b      	ldr	r3, [r7, #48]	@ 0x30
 80027e4:	6bdb      	ldr	r3, [r3, #60]	@ 0x3c
 80027e6:	2b01      	cmp	r3, #1
 80027e8:	d101      	bne.n	80027ee <xQueueGenericSend+0x76>
 80027ea:	2301      	movs	r3, #1
 80027ec:	e000      	b.n	80027f0 <xQueueGenericSend+0x78>
 80027ee:	2300      	movs	r3, #0
 80027f0:	2b00      	cmp	r3, #0
 80027f2:	d10b      	bne.n	800280c <xQueueGenericSend+0x94>
 80027f4:	f04f 0350 	mov.w	r3, #80	@ 0x50
 80027f8:	f383 8811 	msr	BASEPRI, r3
 80027fc:	f3bf 8f6f 	isb	sy
 8002800:	f3bf 8f4f 	dsb	sy
 8002804:	623b      	str	r3, [r7, #32]
 8002806:	bf00      	nop
 8002808:	bf00      	nop
 800280a:	e7fd      	b.n	8002808 <xQueueGenericSend+0x90>
 800280c:	f001 f998 	bl	8003b40 <xTaskGetSchedulerState>
 8002810:	4603      	mov	r3, r0
 8002812:	2b00      	cmp	r3, #0
 8002814:	d102      	bne.n	800281c <xQueueGenericSend+0xa4>
 8002816:	687b      	ldr	r3, [r7, #4]
 8002818:	2b00      	cmp	r3, #0
 800281a:	d101      	bne.n	8002820 <xQueueGenericSend+0xa8>
 800281c:	2301      	movs	r3, #1
 800281e:	e000      	b.n	8002822 <xQueueGenericSend+0xaa>
 8002820:	2300      	movs	r3, #0
 8002822:	2b00      	cmp	r3, #0
 8002824:	d10b      	bne.n	800283e <xQueueGenericSend+0xc6>
 8002826:	f04f 0350 	mov.w	r3, #80	@ 0x50
 800282a:	f383 8811 	msr	BASEPRI, r3
 800282e:	f3bf 8f6f 	isb	sy
 8002832:	f3bf 8f4f 	dsb	sy
 8002836:	61fb      	str	r3, [r7, #28]
 8002838:	bf00      	nop
 800283a:	bf00      	nop
 800283c:	e7fd      	b.n	800283a <xQueueGenericSend+0xc2>
 800283e:	f001 feeb 	bl	8004618 <vPortEnterCritical>
 8002842:	6b3b      	ldr	r3, [r7, #48]	@ 0x30
 8002844:	6b9a      	ldr	r2, [r3, #56]	@ 0x38
 8002846:	6b3b      	ldr	r3, [r7, #48]	@ 0x30
 8002848:	6bdb      	ldr	r3, [r3, #60]	@ 0x3c
 800284a:	429a      	cmp	r2, r3
 800284c:	d302      	bcc.n	8002854 <xQueueGenericSend+0xdc>
 800284e:	683b      	ldr	r3, [r7, #0]
 8002850:	2b02      	cmp	r3, #2
 8002852:	d129      	bne.n	80028a8 <xQueueGenericSend+0x130>
 8002854:	683a      	ldr	r2, [r7, #0]
 8002856:	68b9      	ldr	r1, [r7, #8]
 8002858:	6b38      	ldr	r0, [r7, #48]	@ 0x30
 800285a:	f000 fa0f 	bl	8002c7c <prvCopyDataToQueue>
 800285e:	62f8      	str	r0, [r7, #44]	@ 0x2c
 8002860:	6b3b      	ldr	r3, [r7, #48]	@ 0x30
 8002862:	6a5b      	ldr	r3, [r3, #36]	@ 0x24
 8002864:	2b00      	cmp	r3, #0
 8002866:	d010      	beq.n	800288a <xQueueGenericSend+0x112>
 8002868:	6b3b      	ldr	r3, [r7, #48]	@ 0x30
 800286a:	3324      	adds	r3, #36	@ 0x24
 800286c:	4618      	mov	r0, r3
 800286e:	f000 ffa7 	bl	80037c0 <xTaskRemoveFromEventList>
 8002872:	4603      	mov	r3, r0
 8002874:	2b00      	cmp	r3, #0
 8002876:	d013      	beq.n	80028a0 <xQueueGenericSend+0x128>
 8002878:	4b3f      	ldr	r3, [pc, #252]	@ (8002978 <xQueueGenericSend+0x200>)
 800287a:	f04f 5280 	mov.w	r2, #268435456	@ 0x10000000
 800287e:	601a      	str	r2, [r3, #0]
 8002880:	f3bf 8f4f 	dsb	sy
 8002884:	f3bf 8f6f 	isb	sy
 8002888:	e00a      	b.n	80028a0 <xQueueGenericSend+0x128>
 800288a:	6afb      	ldr	r3, [r7, #44]	@ 0x2c
 800288c:	2b00      	cmp	r3, #0
 800288e:	d007      	beq.n	80028a0 <xQueueGenericSend+0x128>
 8002890:	4b39      	ldr	r3, [pc, #228]	@ (8002978 <xQueueGenericSend+0x200>)
 8002892:	f04f 5280 	mov.w	r2, #268435456	@ 0x10000000
 8002896:	601a      	str	r2, [r3, #0]
 8002898:	f3bf 8f4f 	dsb	sy
 800289c:	f3bf 8f6f 	isb	sy
 80028a0:	f001 feec 	bl	800467c <vPortExitCritical>
 80028a4:	2301      	movs	r3, #1
 80028a6:	e063      	b.n	8002970 <xQueueGenericSend+0x1f8>
 80028a8:	687b      	ldr	r3, [r7, #4]
 80028aa:	2b00      	cmp	r3, #0
 80028ac:	d103      	bne.n	80028b6 <xQueueGenericSend+0x13e>
 80028ae:	f001 fee5 	bl	800467c <vPortExitCritical>
 80028b2:	2300      	movs	r3, #0
 80028b4:	e05c      	b.n	8002970 <xQueueGenericSend+0x1f8>
 80028b6:	6b7b      	ldr	r3, [r7, #52]	@ 0x34
 80028b8:	2b00      	cmp	r3, #0
 80028ba:	d106      	bne.n	80028ca <xQueueGenericSend+0x152>
 80028bc:	f107 0314 	add.w	r3, r7, #20
 80028c0:	4618      	mov	r0, r3
 80028c2:	f000 ffe1 	bl	8003888 <vTaskInternalSetTimeOutState>
 80028c6:	2301      	movs	r3, #1
 80028c8:	637b      	str	r3, [r7, #52]	@ 0x34
 80028ca:	f001 fed7 	bl	800467c <vPortExitCritical>
 80028ce:	f000 fd51 	bl	8003374 <vTaskSuspendAll>
 80028d2:	f001 fea1 	bl	8004618 <vPortEnterCritical>
 80028d6:	6b3b      	ldr	r3, [r7, #48]	@ 0x30
 80028d8:	f893 3044 	ldrb.w	r3, [r3, #68]	@ 0x44
 80028dc:	b25b      	sxtb	r3, r3
 80028de:	f1b3 3fff 	cmp.w	r3, #4294967295
 80028e2:	d103      	bne.n	80028ec <xQueueGenericSend+0x174>
 80028e4:	6b3b      	ldr	r3, [r7, #48]	@ 0x30
 80028e6:	2200      	movs	r2, #0
 80028e8:	f883 2044 	strb.w	r2, [r3, #68]	@ 0x44
 80028ec:	6b3b      	ldr	r3, [r7, #48]	@ 0x30
 80028ee:	f893 3045 	ldrb.w	r3, [r3, #69]	@ 0x45
 80028f2:	b25b      	sxtb	r3, r3
 80028f4:	f1b3 3fff 	cmp.w	r3, #4294967295
 80028f8:	d103      	bne.n	8002902 <xQueueGenericSend+0x18a>
 80028fa:	6b3b      	ldr	r3, [r7, #48]	@ 0x30
 80028fc:	2200      	movs	r2, #0
 80028fe:	f883 2045 	strb.w	r2, [r3, #69]	@ 0x45
 8002902:	f001 febb 	bl	800467c <vPortExitCritical>
 8002906:	1d3a      	adds	r2, r7, #4
 8002908:	f107 0314 	add.w	r3, r7, #20
 800290c:	4611      	mov	r1, r2
 800290e:	4618      	mov	r0, r3
 8002910:	f000 ffd0 	bl	80038b4 <xTaskCheckForTimeOut>
 8002914:	4603      	mov	r3, r0
 8002916:	2b00      	cmp	r3, #0
 8002918:	d124      	bne.n	8002964 <xQueueGenericSend+0x1ec>
 800291a:	6b38      	ldr	r0, [r7, #48]	@ 0x30
 800291c:	f000 faa6 	bl	8002e6c <prvIsQueueFull>
 8002920:	4603      	mov	r3, r0
 8002922:	2b00      	cmp	r3, #0
 8002924:	d018      	beq.n	8002958 <xQueueGenericSend+0x1e0>
 8002926:	6b3b      	ldr	r3, [r7, #48]	@ 0x30
 8002928:	3310      	adds	r3, #16
 800292a:	687a      	ldr	r2, [r7, #4]
 800292c:	4611      	mov	r1, r2
 800292e:	4618      	mov	r0, r3
 8002930:	f000 fef4 	bl	800371c <vTaskPlaceOnEventList>
 8002934:	6b38      	ldr	r0, [r7, #48]	@ 0x30
 8002936:	f000 fa31 	bl	8002d9c <prvUnlockQueue>
 800293a:	f000 fd29 	bl	8003390 <xTaskResumeAll>
 800293e:	4603      	mov	r3, r0
 8002940:	2b00      	cmp	r3, #0
 8002942:	f47f af7c 	bne.w	800283e <xQueueGenericSend+0xc6>
 8002946:	4b0c      	ldr	r3, [pc, #48]	@ (8002978 <xQueueGenericSend+0x200>)
 8002948:	f04f 5280 	mov.w	r2, #268435456	@ 0x10000000
 800294c:	601a      	str	r2, [r3, #0]
 800294e:	f3bf 8f4f 	dsb	sy
 8002952:	f3bf 8f6f 	isb	sy
 8002956:	e772      	b.n	800283e <xQueueGenericSend+0xc6>
 8002958:	6b38      	ldr	r0, [r7, #48]	@ 0x30
 800295a:	f000 fa1f 	bl	8002d9c <prvUnlockQueue>
 800295e:	f000 fd17 	bl	8003390 <xTaskResumeAll>
 8002962:	e76c      	b.n	800283e <xQueueGenericSend+0xc6>
 8002964:	6b38      	ldr	r0, [r7, #48]	@ 0x30
 8002966:	f000 fa19 	bl	8002d9c <prvUnlockQueue>
 800296a:	f000 fd11 	bl	8003390 <xTaskResumeAll>
 800296e:	2300      	movs	r3, #0
 8002970:	4618      	mov	r0, r3
 8002972:	3738      	adds	r7, #56	@ 0x38
 8002974:	46bd      	mov	sp, r7
 8002976:	bd80      	pop	{r7, pc}
 8002978:	e000ed04 	.word	0xe000ed04

0800297c <xQueueGenericSendFromISR>:
 800297c:	b580      	push	{r7, lr}
 800297e:	b090      	sub	sp, #64	@ 0x40
 8002980:	af00      	add	r7, sp, #0
 8002982:	60f8      	str	r0, [r7, #12]
 8002984:	60b9      	str	r1, [r7, #8]
 8002986:	607a      	str	r2, [r7, #4]
 8002988:	603b      	str	r3, [r7, #0]
 800298a:	68fb      	ldr	r3, [r7, #12]
 800298c:	63bb      	str	r3, [r7, #56]	@ 0x38
 800298e:	6bbb      	ldr	r3, [r7, #56]	@ 0x38
 8002990:	2b00      	cmp	r3, #0
 8002992:	d10b      	bne.n	80029ac <xQueueGenericSendFromISR+0x30>
 8002994:	f04f 0350 	mov.w	r3, #80	@ 0x50
 8002998:	f383 8811 	msr	BASEPRI, r3
 800299c:	f3bf 8f6f 	isb	sy
 80029a0:	f3bf 8f4f 	dsb	sy
 80029a4:	62bb      	str	r3, [r7, #40]	@ 0x28
 80029a6:	bf00      	nop
 80029a8:	bf00      	nop
 80029aa:	e7fd      	b.n	80029a8 <xQueueGenericSendFromISR+0x2c>
 80029ac:	68bb      	ldr	r3, [r7, #8]
 80029ae:	2b00      	cmp	r3, #0
 80029b0:	d103      	bne.n	80029ba <xQueueGenericSendFromISR+0x3e>
 80029b2:	6bbb      	ldr	r3, [r7, #56]	@ 0x38
 80029b4:	6c1b      	ldr	r3, [r3, #64]	@ 0x40
 80029b6:	2b00      	cmp	r3, #0
 80029b8:	d101      	bne.n	80029be <xQueueGenericSendFromISR+0x42>
 80029ba:	2301      	movs	r3, #1
 80029bc:	e000      	b.n	80029c0 <xQueueGenericSendFromISR+0x44>
 80029be:	2300      	movs	r3, #0
 80029c0:	2b00      	cmp	r3, #0
 80029c2:	d10b      	bne.n	80029dc <xQueueGenericSendFromISR+0x60>
 80029c4:	f04f 0350 	mov.w	r3, #80	@ 0x50
 80029c8:	f383 8811 	msr	BASEPRI, r3
 80029cc:	f3bf 8f6f 	isb	sy
 80029d0:	f3bf 8f4f 	dsb	sy
 80029d4:	627b      	str	r3, [r7, #36]	@ 0x24
 80029d6:	bf00      	nop
 80029d8:	bf00      	nop
 80029da:	e7fd      	b.n	80029d8 <xQueueGenericSendFromISR+0x5c>
 80029dc:	683b      	ldr	r3, [r7, #0]
 80029de:	2b02      	cmp	r3, #2
 80029e0:	d103      	bne.n	80029ea <xQueueGenericSendFromISR+0x6e>
 80029e2:	6bbb      	ldr	r3, [r7, #56]	@ 0x38
 80029e4:	6bdb      	ldr	r3, [r3, #60]	@ 0x3c
 80029e6:	2b01      	cmp	r3, #1
 80029e8:	d101      	bne.n	80029ee <xQueueGenericSendFromISR+0x72>
 80029ea:	2301      	movs	r3, #1
 80029ec:	e000      	b.n	80029f0 <xQueueGenericSendFromISR+0x74>
 80029ee:	2300      	movs	r3, #0
 80029f0:	2b00      	cmp	r3, #0
 80029f2:	d10b      	bne.n	8002a0c <xQueueGenericSendFromISR+0x90>
 80029f4:	f04f 0350 	mov.w	r3, #80	@ 0x50
 80029f8:	f383 8811 	msr	BASEPRI, r3
 80029fc:	f3bf 8f6f 	isb	sy
 8002a00:	f3bf 8f4f 	dsb	sy
 8002a04:	623b      	str	r3, [r7, #32]
 8002a06:	bf00      	nop
 8002a08:	bf00      	nop
 8002a0a:	e7fd      	b.n	8002a08 <xQueueGenericSendFromISR+0x8c>
 8002a0c:	f001 fee4 	bl	80047d8 <vPortValidateInterruptPriority>
 8002a10:	f3ef 8211 	mrs	r2, BASEPRI
 8002a14:	f04f 0350 	mov.w	r3, #80	@ 0x50
 8002a18:	f383 8811 	msr	BASEPRI, r3
 8002a1c:	f3bf 8f6f 	isb	sy
 8002a20:	f3bf 8f4f 	dsb	sy
 8002a24:	61fa      	str	r2, [r7, #28]
 8002a26:	61bb      	str	r3, [r7, #24]
 8002a28:	69fb      	ldr	r3, [r7, #28]
 8002a2a:	637b      	str	r3, [r7, #52]	@ 0x34
 8002a2c:	6bbb      	ldr	r3, [r7, #56]	@ 0x38
 8002a2e:	6b9a      	ldr	r2, [r3, #56]	@ 0x38
 8002a30:	6bbb      	ldr	r3, [r7, #56]	@ 0x38
 8002a32:	6bdb      	ldr	r3, [r3, #60]	@ 0x3c
 8002a34:	429a      	cmp	r2, r3
 8002a36:	d302      	bcc.n	8002a3e <xQueueGenericSendFromISR+0xc2>
 8002a38:	683b      	ldr	r3, [r7, #0]
 8002a3a:	2b02      	cmp	r3, #2
 8002a3c:	d12f      	bne.n	8002a9e <xQueueGenericSendFromISR+0x122>
 8002a3e:	6bbb      	ldr	r3, [r7, #56]	@ 0x38
 8002a40:	f893 3045 	ldrb.w	r3, [r3, #69]	@ 0x45
 8002a44:	f887 3033 	strb.w	r3, [r7, #51]	@ 0x33
 8002a48:	6bbb      	ldr	r3, [r7, #56]	@ 0x38
 8002a4a:	6b9b      	ldr	r3, [r3, #56]	@ 0x38
 8002a4c:	62fb      	str	r3, [r7, #44]	@ 0x2c
 8002a4e:	683a      	ldr	r2, [r7, #0]
 8002a50:	68b9      	ldr	r1, [r7, #8]
 8002a52:	6bb8      	ldr	r0, [r7, #56]	@ 0x38
 8002a54:	f000 f912 	bl	8002c7c <prvCopyDataToQueue>
 8002a58:	f997 3033 	ldrsb.w	r3, [r7, #51]	@ 0x33
 8002a5c:	f1b3 3fff 	cmp.w	r3, #4294967295
 8002a60:	d112      	bne.n	8002a88 <xQueueGenericSendFromISR+0x10c>
 8002a62:	6bbb      	ldr	r3, [r7, #56]	@ 0x38
 8002a64:	6a5b      	ldr	r3, [r3, #36]	@ 0x24
 8002a66:	2b00      	cmp	r3, #0
 8002a68:	d016      	beq.n	8002a98 <xQueueGenericSendFromISR+0x11c>
 8002a6a:	6bbb      	ldr	r3, [r7, #56]	@ 0x38
 8002a6c:	3324      	adds	r3, #36	@ 0x24
 8002a6e:	4618      	mov	r0, r3
 8002a70:	f000 fea6 	bl	80037c0 <xTaskRemoveFromEventList>
 8002a74:	4603      	mov	r3, r0
 8002a76:	2b00      	cmp	r3, #0
 8002a78:	d00e      	beq.n	8002a98 <xQueueGenericSendFromISR+0x11c>
 8002a7a:	687b      	ldr	r3, [r7, #4]
 8002a7c:	2b00      	cmp	r3, #0
 8002a7e:	d00b      	beq.n	8002a98 <xQueueGenericSendFromISR+0x11c>
 8002a80:	687b      	ldr	r3, [r7, #4]
 8002a82:	2201      	movs	r2, #1
 8002a84:	601a      	str	r2, [r3, #0]
 8002a86:	e007      	b.n	8002a98 <xQueueGenericSendFromISR+0x11c>
 8002a88:	f897 3033 	ldrb.w	r3, [r7, #51]	@ 0x33
 8002a8c:	3301      	adds	r3, #1
 8002a8e:	b2db      	uxtb	r3, r3
 8002a90:	b25a      	sxtb	r2, r3
 8002a92:	6bbb      	ldr	r3, [r7, #56]	@ 0x38
 8002a94:	f883 2045 	strb.w	r2, [r3, #69]	@ 0x45
 8002a98:	2301      	movs	r3, #1
 8002a9a:	63fb      	str	r3, [r7, #60]	@ 0x3c
 8002a9c:	e001      	b.n	8002aa2 <xQueueGenericSendFromISR+0x126>
 8002a9e:	2300      	movs	r3, #0
 8002aa0:	63fb      	str	r3, [r7, #60]	@ 0x3c
 8002aa2:	6b7b      	ldr	r3, [r7, #52]	@ 0x34
 8002aa4:	617b      	str	r3, [r7, #20]
 8002aa6:	697b      	ldr	r3, [r7, #20]
 8002aa8:	f383 8811 	msr	BASEPRI, r3
 8002aac:	bf00      	nop
 8002aae:	6bfb      	ldr	r3, [r7, #60]	@ 0x3c
 8002ab0:	4618      	mov	r0, r3
 8002ab2:	3740      	adds	r7, #64	@ 0x40
 8002ab4:	46bd      	mov	sp, r7
 8002ab6:	bd80      	pop	{r7, pc}

08002ab8 <xQueueReceive>:
 8002ab8:	b580      	push	{r7, lr}
 8002aba:	b08c      	sub	sp, #48	@ 0x30
 8002abc:	af00      	add	r7, sp, #0
 8002abe:	60f8      	str	r0, [r7, #12]
 8002ac0:	60b9      	str	r1, [r7, #8]
 8002ac2:	607a      	str	r2, [r7, #4]
 8002ac4:	2300      	movs	r3, #0
 8002ac6:	62fb      	str	r3, [r7, #44]	@ 0x2c
 8002ac8:	68fb      	ldr	r3, [r7, #12]
 8002aca:	62bb      	str	r3, [r7, #40]	@ 0x28
 8002acc:	6abb      	ldr	r3, [r7, #40]	@ 0x28
 8002ace:	2b00      	cmp	r3, #0
 8002ad0:	d10b      	bne.n	8002aea <xQueueReceive+0x32>
 8002ad2:	f04f 0350 	mov.w	r3, #80	@ 0x50
 8002ad6:	f383 8811 	msr	BASEPRI, r3
 8002ada:	f3bf 8f6f 	isb	sy
 8002ade:	f3bf 8f4f 	dsb	sy
 8002ae2:	623b      	str	r3, [r7, #32]
 8002ae4:	bf00      	nop
 8002ae6:	bf00      	nop
 8002ae8:	e7fd      	b.n	8002ae6 <xQueueReceive+0x2e>
 8002aea:	68bb      	ldr	r3, [r7, #8]
 8002aec:	2b00      	cmp	r3, #0
 8002aee:	d103      	bne.n	8002af8 <xQueueReceive+0x40>
 8002af0:	6abb      	ldr	r3, [r7, #40]	@ 0x28
 8002af2:	6c1b      	ldr	r3, [r3, #64]	@ 0x40
 8002af4:	2b00      	cmp	r3, #0
 8002af6:	d101      	bne.n	8002afc <xQueueReceive+0x44>
 8002af8:	2301      	movs	r3, #1
 8002afa:	e000      	b.n	8002afe <xQueueReceive+0x46>
 8002afc:	2300      	movs	r3, #0
 8002afe:	2b00      	cmp	r3, #0
 8002b00:	d10b      	bne.n	8002b1a <xQueueReceive+0x62>
 8002b02:	f04f 0350 	mov.w	r3, #80	@ 0x50
 8002b06:	f383 8811 	msr	BASEPRI, r3
 8002b0a:	f3bf 8f6f 	isb	sy
 8002b0e:	f3bf 8f4f 	dsb	sy
 8002b12:	61fb      	str	r3, [r7, #28]
 8002b14:	bf00      	nop
 8002b16:	bf00      	nop
 8002b18:	e7fd      	b.n	8002b16 <xQueueReceive+0x5e>
 8002b1a:	f001 f811 	bl	8003b40 <xTaskGetSchedulerState>
 8002b1e:	4603      	mov	r3, r0
 8002b20:	2b00      	cmp	r3, #0
 8002b22:	d102      	bne.n	8002b2a <xQueueReceive+0x72>
 8002b24:	687b      	ldr	r3, [r7, #4]
 8002b26:	2b00      	cmp	r3, #0
 8002b28:	d101      	bne.n	8002b2e <xQueueReceive+0x76>
 8002b2a:	2301      	movs	r3, #1
 8002b2c:	e000      	b.n	8002b30 <xQueueReceive+0x78>
 8002b2e:	2300      	movs	r3, #0
 8002b30:	2b00      	cmp	r3, #0
 8002b32:	d10b      	bne.n	8002b4c <xQueueReceive+0x94>
 8002b34:	f04f 0350 	mov.w	r3, #80	@ 0x50
 8002b38:	f383 8811 	msr	BASEPRI, r3
 8002b3c:	f3bf 8f6f 	isb	sy
 8002b40:	f3bf 8f4f 	dsb	sy
 8002b44:	61bb      	str	r3, [r7, #24]
 8002b46:	bf00      	nop
 8002b48:	bf00      	nop
 8002b4a:	e7fd      	b.n	8002b48 <xQueueReceive+0x90>
 8002b4c:	f001 fd64 	bl	8004618 <vPortEnterCritical>
 8002b50:	6abb      	ldr	r3, [r7, #40]	@ 0x28
 8002b52:	6b9b      	ldr	r3, [r3, #56]	@ 0x38
 8002b54:	627b      	str	r3, [r7, #36]	@ 0x24
 8002b56:	6a7b      	ldr	r3, [r7, #36]	@ 0x24
 8002b58:	2b00      	cmp	r3, #0
 8002b5a:	d01f      	beq.n	8002b9c <xQueueReceive+0xe4>
 8002b5c:	68b9      	ldr	r1, [r7, #8]
 8002b5e:	6ab8      	ldr	r0, [r7, #40]	@ 0x28
 8002b60:	f000 f8f6 	bl	8002d50 <prvCopyDataFromQueue>
 8002b64:	6a7b      	ldr	r3, [r7, #36]	@ 0x24
 8002b66:	1e5a      	subs	r2, r3, #1
 8002b68:	6abb      	ldr	r3, [r7, #40]	@ 0x28
 8002b6a:	639a      	str	r2, [r3, #56]	@ 0x38
 8002b6c:	6abb      	ldr	r3, [r7, #40]	@ 0x28
 8002b6e:	691b      	ldr	r3, [r3, #16]
 8002b70:	2b00      	cmp	r3, #0
 8002b72:	d00f      	beq.n	8002b94 <xQueueReceive+0xdc>
 8002b74:	6abb      	ldr	r3, [r7, #40]	@ 0x28
 8002b76:	3310      	adds	r3, #16
 8002b78:	4618      	mov	r0, r3
 8002b7a:	f000 fe21 	bl	80037c0 <xTaskRemoveFromEventList>
 8002b7e:	4603      	mov	r3, r0
 8002b80:	2b00      	cmp	r3, #0
 8002b82:	d007      	beq.n	8002b94 <xQueueReceive+0xdc>
 8002b84:	4b3c      	ldr	r3, [pc, #240]	@ (8002c78 <xQueueReceive+0x1c0>)
 8002b86:	f04f 5280 	mov.w	r2, #268435456	@ 0x10000000
 8002b8a:	601a      	str	r2, [r3, #0]
 8002b8c:	f3bf 8f4f 	dsb	sy
 8002b90:	f3bf 8f6f 	isb	sy
 8002b94:	f001 fd72 	bl	800467c <vPortExitCritical>
 8002b98:	2301      	movs	r3, #1
 8002b9a:	e069      	b.n	8002c70 <xQueueReceive+0x1b8>
 8002b9c:	687b      	ldr	r3, [r7, #4]
 8002b9e:	2b00      	cmp	r3, #0
 8002ba0:	d103      	bne.n	8002baa <xQueueReceive+0xf2>
 8002ba2:	f001 fd6b 	bl	800467c <vPortExitCritical>
 8002ba6:	2300      	movs	r3, #0
 8002ba8:	e062      	b.n	8002c70 <xQueueReceive+0x1b8>
 8002baa:	6afb      	ldr	r3, [r7, #44]	@ 0x2c
 8002bac:	2b00      	cmp	r3, #0
 8002bae:	d106      	bne.n	8002bbe <xQueueReceive+0x106>
 8002bb0:	f107 0310 	add.w	r3, r7, #16
 8002bb4:	4618      	mov	r0, r3
 8002bb6:	f000 fe67 	bl	8003888 <vTaskInternalSetTimeOutState>
 8002bba:	2301      	movs	r3, #1
 8002bbc:	62fb      	str	r3, [r7, #44]	@ 0x2c
 8002bbe:	f001 fd5d 	bl	800467c <vPortExitCritical>
 8002bc2:	f000 fbd7 	bl	8003374 <vTaskSuspendAll>
 8002bc6:	f001 fd27 	bl	8004618 <vPortEnterCritical>
 8002bca:	6abb      	ldr	r3, [r7, #40]	@ 0x28
 8002bcc:	f893 3044 	ldrb.w	r3, [r3, #68]	@ 0x44
 8002bd0:	b25b      	sxtb	r3, r3
 8002bd2:	f1b3 3fff 	cmp.w	r3, #4294967295
 8002bd6:	d103      	bne.n	8002be0 <xQueueReceive+0x128>
 8002bd8:	6abb      	ldr	r3, [r7, #40]	@ 0x28
 8002bda:	2200      	movs	r2, #0
 8002bdc:	f883 2044 	strb.w	r2, [r3, #68]	@ 0x44
 8002be0:	6abb      	ldr	r3, [r7, #40]	@ 0x28
 8002be2:	f893 3045 	ldrb.w	r3, [r3, #69]	@ 0x45
 8002be6:	b25b      	sxtb	r3, r3
 8002be8:	f1b3 3fff 	cmp.w	r3, #4294967295
 8002bec:	d103      	bne.n	8002bf6 <xQueueReceive+0x13e>
 8002bee:	6abb      	ldr	r3, [r7, #40]	@ 0x28
 8002bf0:	2200      	movs	r2, #0
 8002bf2:	f883 2045 	strb.w	r2, [r3, #69]	@ 0x45
 8002bf6:	f001 fd41 	bl	800467c <vPortExitCritical>
 8002bfa:	1d3a      	adds	r2, r7, #4
 8002bfc:	f107 0310 	add.w	r3, r7, #16
 8002c00:	4611      	mov	r1, r2
 8002c02:	4618      	mov	r0, r3
 8002c04:	f000 fe56 	bl	80038b4 <xTaskCheckForTimeOut>
 8002c08:	4603      	mov	r3, r0
 8002c0a:	2b00      	cmp	r3, #0
 8002c0c:	d123      	bne.n	8002c56 <xQueueReceive+0x19e>
 8002c0e:	6ab8      	ldr	r0, [r7, #40]	@ 0x28
 8002c10:	f000 f916 	bl	8002e40 <prvIsQueueEmpty>
 8002c14:	4603      	mov	r3, r0
 8002c16:	2b00      	cmp	r3, #0
 8002c18:	d017      	beq.n	8002c4a <xQueueReceive+0x192>
 8002c1a:	6abb      	ldr	r3, [r7, #40]	@ 0x28
 8002c1c:	3324      	adds	r3, #36	@ 0x24
 8002c1e:	687a      	ldr	r2, [r7, #4]
 8002c20:	4611      	mov	r1, r2
 8002c22:	4618      	mov	r0, r3
 8002c24:	f000 fd7a 	bl	800371c <vTaskPlaceOnEventList>
 8002c28:	6ab8      	ldr	r0, [r7, #40]	@ 0x28
 8002c2a:	f000 f8b7 	bl	8002d9c <prvUnlockQueue>
 8002c2e:	f000 fbaf 	bl	8003390 <xTaskResumeAll>
 8002c32:	4603      	mov	r3, r0
 8002c34:	2b00      	cmp	r3, #0
 8002c36:	d189      	bne.n	8002b4c <xQueueReceive+0x94>
 8002c38:	4b0f      	ldr	r3, [pc, #60]	@ (8002c78 <xQueueReceive+0x1c0>)
 8002c3a:	f04f 5280 	mov.w	r2, #268435456	@ 0x10000000
 8002c3e:	601a      	str	r2, [r3, #0]
 8002c40:	f3bf 8f4f 	dsb	sy
 8002c44:	f3bf 8f6f 	isb	sy
 8002c48:	e780      	b.n	8002b4c <xQueueReceive+0x94>
 8002c4a:	6ab8      	ldr	r0, [r7, #40]	@ 0x28
 8002c4c:	f000 f8a6 	bl	8002d9c <prvUnlockQueue>
 8002c50:	f000 fb9e 	bl	8003390 <xTaskResumeAll>
 8002c54:	e77a      	b.n	8002b4c <xQueueReceive+0x94>
 8002c56:	6ab8      	ldr	r0, [r7, #40]	@ 0x28
 8002c58:	f000 f8a0 	bl	8002d9c <prvUnlockQueue>
 8002c5c:	f000 fb98 	bl	8003390 <xTaskResumeAll>
 8002c60:	6ab8      	ldr	r0, [r7, #40]	@ 0x28
 8002c62:	f000 f8ed 	bl	8002e40 <prvIsQueueEmpty>
 8002c66:	4603      	mov	r3, r0
 8002c68:	2b00      	cmp	r3, #0
 8002c6a:	f43f af6f 	beq.w	8002b4c <xQueueReceive+0x94>
 8002c6e:	2300      	movs	r3, #0
 8002c70:	4618      	mov	r0, r3
 8002c72:	3730      	adds	r7, #48	@ 0x30
 8002c74:	46bd      	mov	sp, r7
 8002c76:	bd80      	pop	{r7, pc}
 8002c78:	e000ed04 	.word	0xe000ed04

08002c7c <prvCopyDataToQueue>:
 8002c7c:	b580      	push	{r7, lr}
 8002c7e:	b086      	sub	sp, #24
 8002c80:	af00      	add	r7, sp, #0
 8002c82:	60f8      	str	r0, [r7, #12]
 8002c84:	60b9      	str	r1, [r7, #8]
 8002c86:	607a      	str	r2, [r7, #4]
 8002c88:	2300      	movs	r3, #0
 8002c8a:	617b      	str	r3, [r7, #20]
 8002c8c:	68fb      	ldr	r3, [r7, #12]
 8002c8e:	6b9b      	ldr	r3, [r3, #56]	@ 0x38
 8002c90:	613b      	str	r3, [r7, #16]
 8002c92:	68fb      	ldr	r3, [r7, #12]
 8002c94:	6c1b      	ldr	r3, [r3, #64]	@ 0x40
 8002c96:	2b00      	cmp	r3, #0
 8002c98:	d10d      	bne.n	8002cb6 <prvCopyDataToQueue+0x3a>
 8002c9a:	68fb      	ldr	r3, [r7, #12]
 8002c9c:	681b      	ldr	r3, [r3, #0]
 8002c9e:	2b00      	cmp	r3, #0
 8002ca0:	d14d      	bne.n	8002d3e <prvCopyDataToQueue+0xc2>
 8002ca2:	68fb      	ldr	r3, [r7, #12]
 8002ca4:	689b      	ldr	r3, [r3, #8]
 8002ca6:	4618      	mov	r0, r3
 8002ca8:	f000 ff68 	bl	8003b7c <xTaskPriorityDisinherit>
 8002cac:	6178      	str	r0, [r7, #20]
 8002cae:	68fb      	ldr	r3, [r7, #12]
 8002cb0:	2200      	movs	r2, #0
 8002cb2:	609a      	str	r2, [r3, #8]
 8002cb4:	e043      	b.n	8002d3e <prvCopyDataToQueue+0xc2>
 8002cb6:	687b      	ldr	r3, [r7, #4]
 8002cb8:	2b00      	cmp	r3, #0
 8002cba:	d119      	bne.n	8002cf0 <prvCopyDataToQueue+0x74>
 8002cbc:	68fb      	ldr	r3, [r7, #12]
 8002cbe:	6858      	ldr	r0, [r3, #4]
 8002cc0:	68fb      	ldr	r3, [r7, #12]
 8002cc2:	6c1b      	ldr	r3, [r3, #64]	@ 0x40
 8002cc4:	461a      	mov	r2, r3
 8002cc6:	68b9      	ldr	r1, [r7, #8]
 8002cc8:	f001 ffe2 	bl	8004c90 <memcpy>
 8002ccc:	68fb      	ldr	r3, [r7, #12]
 8002cce:	685a      	ldr	r2, [r3, #4]
 8002cd0:	68fb      	ldr	r3, [r7, #12]
 8002cd2:	6c1b      	ldr	r3, [r3, #64]	@ 0x40
 8002cd4:	441a      	add	r2, r3
 8002cd6:	68fb      	ldr	r3, [r7, #12]
 8002cd8:	605a      	str	r2, [r3, #4]
 8002cda:	68fb      	ldr	r3, [r7, #12]
 8002cdc:	685a      	ldr	r2, [r3, #4]
 8002cde:	68fb      	ldr	r3, [r7, #12]
 8002ce0:	689b      	ldr	r3, [r3, #8]
 8002ce2:	429a      	cmp	r2, r3
 8002ce4:	d32b      	bcc.n	8002d3e <prvCopyDataToQueue+0xc2>
 8002ce6:	68fb      	ldr	r3, [r7, #12]
 8002ce8:	681a      	ldr	r2, [r3, #0]
 8002cea:	68fb      	ldr	r3, [r7, #12]
 8002cec:	605a      	str	r2, [r3, #4]
 8002cee:	e026      	b.n	8002d3e <prvCopyDataToQueue+0xc2>
 8002cf0:	68fb      	ldr	r3, [r7, #12]
 8002cf2:	68d8      	ldr	r0, [r3, #12]
 8002cf4:	68fb      	ldr	r3, [r7, #12]
 8002cf6:	6c1b      	ldr	r3, [r3, #64]	@ 0x40
 8002cf8:	461a      	mov	r2, r3
 8002cfa:	68b9      	ldr	r1, [r7, #8]
 8002cfc:	f001 ffc8 	bl	8004c90 <memcpy>
 8002d00:	68fb      	ldr	r3, [r7, #12]
 8002d02:	68da      	ldr	r2, [r3, #12]
 8002d04:	68fb      	ldr	r3, [r7, #12]
 8002d06:	6c1b      	ldr	r3, [r3, #64]	@ 0x40
 8002d08:	425b      	negs	r3, r3
 8002d0a:	441a      	add	r2, r3
 8002d0c:	68fb      	ldr	r3, [r7, #12]
 8002d0e:	60da      	str	r2, [r3, #12]
 8002d10:	68fb      	ldr	r3, [r7, #12]
 8002d12:	68da      	ldr	r2, [r3, #12]
 8002d14:	68fb      	ldr	r3, [r7, #12]
 8002d16:	681b      	ldr	r3, [r3, #0]
 8002d18:	429a      	cmp	r2, r3
 8002d1a:	d207      	bcs.n	8002d2c <prvCopyDataToQueue+0xb0>
 8002d1c:	68fb      	ldr	r3, [r7, #12]
 8002d1e:	689a      	ldr	r2, [r3, #8]
 8002d20:	68fb      	ldr	r3, [r7, #12]
 8002d22:	6c1b      	ldr	r3, [r3, #64]	@ 0x40
 8002d24:	425b      	negs	r3, r3
 8002d26:	441a      	add	r2, r3
 8002d28:	68fb      	ldr	r3, [r7, #12]
 8002d2a:	60da      	str	r2, [r3, #12]
 8002d2c:	687b      	ldr	r3, [r7, #4]
 8002d2e:	2b02      	cmp	r3, #2
 8002d30:	d105      	bne.n	8002d3e <prvCopyDataToQueue+0xc2>
 8002d32:	693b      	ldr	r3, [r7, #16]
 8002d34:	2b00      	cmp	r3, #0
 8002d36:	d002      	beq.n	8002d3e <prvCopyDataToQueue+0xc2>
 8002d38:	693b      	ldr	r3, [r7, #16]
 8002d3a:	3b01      	subs	r3, #1
 8002d3c:	613b      	str	r3, [r7, #16]
 8002d3e:	693b      	ldr	r3, [r7, #16]
 8002d40:	1c5a      	adds	r2, r3, #1
 8002d42:	68fb      	ldr	r3, [r7, #12]
 8002d44:	639a      	str	r2, [r3, #56]	@ 0x38
 8002d46:	697b      	ldr	r3, [r7, #20]
 8002d48:	4618      	mov	r0, r3
 8002d4a:	3718      	adds	r7, #24
 8002d4c:	46bd      	mov	sp, r7
 8002d4e:	bd80      	pop	{r7, pc}

08002d50 <prvCopyDataFromQueue>:
 8002d50:	b580      	push	{r7, lr}
 8002d52:	b082      	sub	sp, #8
 8002d54:	af00      	add	r7, sp, #0
 8002d56:	6078      	str	r0, [r7, #4]
 8002d58:	6039      	str	r1, [r7, #0]
 8002d5a:	687b      	ldr	r3, [r7, #4]
 8002d5c:	6c1b      	ldr	r3, [r3, #64]	@ 0x40
 8002d5e:	2b00      	cmp	r3, #0
 8002d60:	d018      	beq.n	8002d94 <prvCopyDataFromQueue+0x44>
 8002d62:	687b      	ldr	r3, [r7, #4]
 8002d64:	68da      	ldr	r2, [r3, #12]
 8002d66:	687b      	ldr	r3, [r7, #4]
 8002d68:	6c1b      	ldr	r3, [r3, #64]	@ 0x40
 8002d6a:	441a      	add	r2, r3
 8002d6c:	687b      	ldr	r3, [r7, #4]
 8002d6e:	60da      	str	r2, [r3, #12]
 8002d70:	687b      	ldr	r3, [r7, #4]
 8002d72:	68da      	ldr	r2, [r3, #12]
 8002d74:	687b      	ldr	r3, [r7, #4]
 8002d76:	689b      	ldr	r3, [r3, #8]
 8002d78:	429a      	cmp	r2, r3
 8002d7a:	d303      	bcc.n	8002d84 <prvCopyDataFromQueue+0x34>
 8002d7c:	687b      	ldr	r3, [r7, #4]
 8002d7e:	681a      	ldr	r2, [r3, #0]
 8002d80:	687b      	ldr	r3, [r7, #4]
 8002d82:	60da      	str	r2, [r3, #12]
 8002d84:	687b      	ldr	r3, [r7, #4]
 8002d86:	68d9      	ldr	r1, [r3, #12]
 8002d88:	687b      	ldr	r3, [r7, #4]
 8002d8a:	6c1b      	ldr	r3, [r3, #64]	@ 0x40
 8002d8c:	461a      	mov	r2, r3
 8002d8e:	6838      	ldr	r0, [r7, #0]
 8002d90:	f001 ff7e 	bl	8004c90 <memcpy>
 8002d94:	bf00      	nop
 8002d96:	3708      	adds	r7, #8
 8002d98:	46bd      	mov	sp, r7
 8002d9a:	bd80      	pop	{r7, pc}

08002d9c <prvUnlockQueue>:
 8002d9c:	b580      	push	{r7, lr}
 8002d9e:	b084      	sub	sp, #16
 8002da0:	af00      	add	r7, sp, #0
 8002da2:	6078      	str	r0, [r7, #4]
 8002da4:	f001 fc38 	bl	8004618 <vPortEnterCritical>
 8002da8:	687b      	ldr	r3, [r7, #4]
 8002daa:	f893 3045 	ldrb.w	r3, [r3, #69]	@ 0x45
 8002dae:	73fb      	strb	r3, [r7, #15]
 8002db0:	e011      	b.n	8002dd6 <prvUnlockQueue+0x3a>
 8002db2:	687b      	ldr	r3, [r7, #4]
 8002db4:	6a5b      	ldr	r3, [r3, #36]	@ 0x24
 8002db6:	2b00      	cmp	r3, #0
 8002db8:	d012      	beq.n	8002de0 <prvUnlockQueue+0x44>
 8002dba:	687b      	ldr	r3, [r7, #4]
 8002dbc:	3324      	adds	r3, #36	@ 0x24
 8002dbe:	4618      	mov	r0, r3
 8002dc0:	f000 fcfe 	bl	80037c0 <xTaskRemoveFromEventList>
 8002dc4:	4603      	mov	r3, r0
 8002dc6:	2b00      	cmp	r3, #0
 8002dc8:	d001      	beq.n	8002dce <prvUnlockQueue+0x32>
 8002dca:	f000 fdd7 	bl	800397c <vTaskMissedYield>
 8002dce:	7bfb      	ldrb	r3, [r7, #15]
 8002dd0:	3b01      	subs	r3, #1
 8002dd2:	b2db      	uxtb	r3, r3
 8002dd4:	73fb      	strb	r3, [r7, #15]
 8002dd6:	f997 300f 	ldrsb.w	r3, [r7, #15]
 8002dda:	2b00      	cmp	r3, #0
 8002ddc:	dce9      	bgt.n	8002db2 <prvUnlockQueue+0x16>
 8002dde:	e000      	b.n	8002de2 <prvUnlockQueue+0x46>
 8002de0:	bf00      	nop
 8002de2:	687b      	ldr	r3, [r7, #4]
 8002de4:	22ff      	movs	r2, #255	@ 0xff
 8002de6:	f883 2045 	strb.w	r2, [r3, #69]	@ 0x45
 8002dea:	f001 fc47 	bl	800467c <vPortExitCritical>
 8002dee:	f001 fc13 	bl	8004618 <vPortEnterCritical>
 8002df2:	687b      	ldr	r3, [r7, #4]
 8002df4:	f893 3044 	ldrb.w	r3, [r3, #68]	@ 0x44
 8002df8:	73bb      	strb	r3, [r7, #14]
 8002dfa:	e011      	b.n	8002e20 <prvUnlockQueue+0x84>
 8002dfc:	687b      	ldr	r3, [r7, #4]
 8002dfe:	691b      	ldr	r3, [r3, #16]
 8002e00:	2b00      	cmp	r3, #0
 8002e02:	d012      	beq.n	8002e2a <prvUnlockQueue+0x8e>
 8002e04:	687b      	ldr	r3, [r7, #4]
 8002e06:	3310      	adds	r3, #16
 8002e08:	4618      	mov	r0, r3
 8002e0a:	f000 fcd9 	bl	80037c0 <xTaskRemoveFromEventList>
 8002e0e:	4603      	mov	r3, r0
 8002e10:	2b00      	cmp	r3, #0
 8002e12:	d001      	beq.n	8002e18 <prvUnlockQueue+0x7c>
 8002e14:	f000 fdb2 	bl	800397c <vTaskMissedYield>
 8002e18:	7bbb      	ldrb	r3, [r7, #14]
 8002e1a:	3b01      	subs	r3, #1
 8002e1c:	b2db      	uxtb	r3, r3
 8002e1e:	73bb      	strb	r3, [r7, #14]
 8002e20:	f997 300e 	ldrsb.w	r3, [r7, #14]
 8002e24:	2b00      	cmp	r3, #0
 8002e26:	dce9      	bgt.n	8002dfc <prvUnlockQueue+0x60>
 8002e28:	e000      	b.n	8002e2c <prvUnlockQueue+0x90>
 8002e2a:	bf00      	nop
 8002e2c:	687b      	ldr	r3, [r7, #4]
 8002e2e:	22ff      	movs	r2, #255	@ 0xff
 8002e30:	f883 2044 	strb.w	r2, [r3, #68]	@ 0x44
 8002e34:	f001 fc22 	bl	800467c <vPortExitCritical>
 8002e38:	bf00      	nop
 8002e3a:	3710      	adds	r7, #16
 8002e3c:	46bd      	mov	sp, r7
 8002e3e:	bd80      	pop	{r7, pc}

08002e40 <prvIsQueueEmpty>:
 8002e40:	b580      	push	{r7, lr}
 8002e42:	b084      	sub	sp, #16
 8002e44:	af00      	add	r7, sp, #0
 8002e46:	6078      	str	r0, [r7, #4]
 8002e48:	f001 fbe6 	bl	8004618 <vPortEnterCritical>
 8002e4c:	687b      	ldr	r3, [r7, #4]
 8002e4e:	6b9b      	ldr	r3, [r3, #56]	@ 0x38
 8002e50:	2b00      	cmp	r3, #0
 8002e52:	d102      	bne.n	8002e5a <prvIsQueueEmpty+0x1a>
 8002e54:	2301      	movs	r3, #1
 8002e56:	60fb      	str	r3, [r7, #12]
 8002e58:	e001      	b.n	8002e5e <prvIsQueueEmpty+0x1e>
 8002e5a:	2300      	movs	r3, #0
 8002e5c:	60fb      	str	r3, [r7, #12]
 8002e5e:	f001 fc0d 	bl	800467c <vPortExitCritical>
 8002e62:	68fb      	ldr	r3, [r7, #12]
 8002e64:	4618      	mov	r0, r3
 8002e66:	3710      	adds	r7, #16
 8002e68:	46bd      	mov	sp, r7
 8002e6a:	bd80      	pop	{r7, pc}

08002e6c <prvIsQueueFull>:
 8002e6c:	b580      	push	{r7, lr}
 8002e6e:	b084      	sub	sp, #16
 8002e70:	af00      	add	r7, sp, #0
 8002e72:	6078      	str	r0, [r7, #4]
 8002e74:	f001 fbd0 	bl	8004618 <vPortEnterCritical>
 8002e78:	687b      	ldr	r3, [r7, #4]
 8002e7a:	6b9a      	ldr	r2, [r3, #56]	@ 0x38
 8002e7c:	687b      	ldr	r3, [r7, #4]
 8002e7e:	6bdb      	ldr	r3, [r3, #60]	@ 0x3c
 8002e80:	429a      	cmp	r2, r3
 8002e82:	d102      	bne.n	8002e8a <prvIsQueueFull+0x1e>
 8002e84:	2301      	movs	r3, #1
 8002e86:	60fb      	str	r3, [r7, #12]
 8002e88:	e001      	b.n	8002e8e <prvIsQueueFull+0x22>
 8002e8a:	2300      	movs	r3, #0
 8002e8c:	60fb      	str	r3, [r7, #12]
 8002e8e:	f001 fbf5 	bl	800467c <vPortExitCritical>
 8002e92:	68fb      	ldr	r3, [r7, #12]
 8002e94:	4618      	mov	r0, r3
 8002e96:	3710      	adds	r7, #16
 8002e98:	46bd      	mov	sp, r7
 8002e9a:	bd80      	pop	{r7, pc}

08002e9c <vQueueAddToRegistry>:
 8002e9c:	b480      	push	{r7}
 8002e9e:	b085      	sub	sp, #20
 8002ea0:	af00      	add	r7, sp, #0
 8002ea2:	6078      	str	r0, [r7, #4]
 8002ea4:	6039      	str	r1, [r7, #0]
 8002ea6:	2300      	movs	r3, #0
 8002ea8:	60fb      	str	r3, [r7, #12]
 8002eaa:	e014      	b.n	8002ed6 <vQueueAddToRegistry+0x3a>
 8002eac:	4a0f      	ldr	r2, [pc, #60]	@ (8002eec <vQueueAddToRegistry+0x50>)
 8002eae:	68fb      	ldr	r3, [r7, #12]
 8002eb0:	f852 3033 	ldr.w	r3, [r2, r3, lsl #3]
 8002eb4:	2b00      	cmp	r3, #0
 8002eb6:	d10b      	bne.n	8002ed0 <vQueueAddToRegistry+0x34>
 8002eb8:	490c      	ldr	r1, [pc, #48]	@ (8002eec <vQueueAddToRegistry+0x50>)
 8002eba:	68fb      	ldr	r3, [r7, #12]
 8002ebc:	683a      	ldr	r2, [r7, #0]
 8002ebe:	f841 2033 	str.w	r2, [r1, r3, lsl #3]
 8002ec2:	4a0a      	ldr	r2, [pc, #40]	@ (8002eec <vQueueAddToRegistry+0x50>)
 8002ec4:	68fb      	ldr	r3, [r7, #12]
 8002ec6:	00db      	lsls	r3, r3, #3
 8002ec8:	4413      	add	r3, r2
 8002eca:	687a      	ldr	r2, [r7, #4]
 8002ecc:	605a      	str	r2, [r3, #4]
 8002ece:	e006      	b.n	8002ede <vQueueAddToRegistry+0x42>
 8002ed0:	68fb      	ldr	r3, [r7, #12]
 8002ed2:	3301      	adds	r3, #1
 8002ed4:	60fb      	str	r3, [r7, #12]
 8002ed6:	68fb      	ldr	r3, [r7, #12]
 8002ed8:	2b07      	cmp	r3, #7
 8002eda:	d9e7      	bls.n	8002eac <vQueueAddToRegistry+0x10>
 8002edc:	bf00      	nop
 8002ede:	bf00      	nop
 8002ee0:	3714      	adds	r7, #20
 8002ee2:	46bd      	mov	sp, r7
 8002ee4:	f85d 7b04 	ldr.w	r7, [sp], #4
 8002ee8:	4770      	bx	lr
 8002eea:	bf00      	nop
 8002eec:	2000077c 	.word	0x2000077c

08002ef0 <vQueueWaitForMessageRestricted>:
 8002ef0:	b580      	push	{r7, lr}
 8002ef2:	b086      	sub	sp, #24
 8002ef4:	af00      	add	r7, sp, #0
 8002ef6:	60f8      	str	r0, [r7, #12]
 8002ef8:	60b9      	str	r1, [r7, #8]
 8002efa:	607a      	str	r2, [r7, #4]
 8002efc:	68fb      	ldr	r3, [r7, #12]
 8002efe:	617b      	str	r3, [r7, #20]
 8002f00:	f001 fb8a 	bl	8004618 <vPortEnterCritical>
 8002f04:	697b      	ldr	r3, [r7, #20]
 8002f06:	f893 3044 	ldrb.w	r3, [r3, #68]	@ 0x44
 8002f0a:	b25b      	sxtb	r3, r3
 8002f0c:	f1b3 3fff 	cmp.w	r3, #4294967295
 8002f10:	d103      	bne.n	8002f1a <vQueueWaitForMessageRestricted+0x2a>
 8002f12:	697b      	ldr	r3, [r7, #20]
 8002f14:	2200      	movs	r2, #0
 8002f16:	f883 2044 	strb.w	r2, [r3, #68]	@ 0x44
 8002f1a:	697b      	ldr	r3, [r7, #20]
 8002f1c:	f893 3045 	ldrb.w	r3, [r3, #69]	@ 0x45
 8002f20:	b25b      	sxtb	r3, r3
 8002f22:	f1b3 3fff 	cmp.w	r3, #4294967295
 8002f26:	d103      	bne.n	8002f30 <vQueueWaitForMessageRestricted+0x40>
 8002f28:	697b      	ldr	r3, [r7, #20]
 8002f2a:	2200      	movs	r2, #0
 8002f2c:	f883 2045 	strb.w	r2, [r3, #69]	@ 0x45
 8002f30:	f001 fba4 	bl	800467c <vPortExitCritical>
 8002f34:	697b      	ldr	r3, [r7, #20]
 8002f36:	6b9b      	ldr	r3, [r3, #56]	@ 0x38
 8002f38:	2b00      	cmp	r3, #0
 8002f3a:	d106      	bne.n	8002f4a <vQueueWaitForMessageRestricted+0x5a>
 8002f3c:	697b      	ldr	r3, [r7, #20]
 8002f3e:	3324      	adds	r3, #36	@ 0x24
 8002f40:	687a      	ldr	r2, [r7, #4]
 8002f42:	68b9      	ldr	r1, [r7, #8]
 8002f44:	4618      	mov	r0, r3
 8002f46:	f000 fc0f 	bl	8003768 <vTaskPlaceOnEventListRestricted>
 8002f4a:	6978      	ldr	r0, [r7, #20]
 8002f4c:	f7ff ff26 	bl	8002d9c <prvUnlockQueue>
 8002f50:	bf00      	nop
 8002f52:	3718      	adds	r7, #24
 8002f54:	46bd      	mov	sp, r7
 8002f56:	bd80      	pop	{r7, pc}

08002f58 <xTaskCreateStatic>:
 8002f58:	b580      	push	{r7, lr}
 8002f5a:	b08e      	sub	sp, #56	@ 0x38
 8002f5c:	af04      	add	r7, sp, #16
 8002f5e:	60f8      	str	r0, [r7, #12]
 8002f60:	60b9      	str	r1, [r7, #8]
 8002f62:	607a      	str	r2, [r7, #4]
 8002f64:	603b      	str	r3, [r7, #0]
 8002f66:	6b7b      	ldr	r3, [r7, #52]	@ 0x34
 8002f68:	2b00      	cmp	r3, #0
 8002f6a:	d10b      	bne.n	8002f84 <xTaskCreateStatic+0x2c>
 8002f6c:	f04f 0350 	mov.w	r3, #80	@ 0x50
 8002f70:	f383 8811 	msr	BASEPRI, r3
 8002f74:	f3bf 8f6f 	isb	sy
 8002f78:	f3bf 8f4f 	dsb	sy
 8002f7c:	623b      	str	r3, [r7, #32]
 8002f7e:	bf00      	nop
 8002f80:	bf00      	nop
 8002f82:	e7fd      	b.n	8002f80 <xTaskCreateStatic+0x28>
 8002f84:	6bbb      	ldr	r3, [r7, #56]	@ 0x38
 8002f86:	2b00      	cmp	r3, #0
 8002f88:	d10b      	bne.n	8002fa2 <xTaskCreateStatic+0x4a>
 8002f8a:	f04f 0350 	mov.w	r3, #80	@ 0x50
 8002f8e:	f383 8811 	msr	BASEPRI, r3
 8002f92:	f3bf 8f6f 	isb	sy
 8002f96:	f3bf 8f4f 	dsb	sy
 8002f9a:	61fb      	str	r3, [r7, #28]
 8002f9c:	bf00      	nop
 8002f9e:	bf00      	nop
 8002fa0:	e7fd      	b.n	8002f9e <xTaskCreateStatic+0x46>
 8002fa2:	235c      	movs	r3, #92	@ 0x5c
 8002fa4:	613b      	str	r3, [r7, #16]
 8002fa6:	693b      	ldr	r3, [r7, #16]
 8002fa8:	2b5c      	cmp	r3, #92	@ 0x5c
 8002faa:	d00b      	beq.n	8002fc4 <xTaskCreateStatic+0x6c>
 8002fac:	f04f 0350 	mov.w	r3, #80	@ 0x50
 8002fb0:	f383 8811 	msr	BASEPRI, r3
 8002fb4:	f3bf 8f6f 	isb	sy
 8002fb8:	f3bf 8f4f 	dsb	sy
 8002fbc:	61bb      	str	r3, [r7, #24]
 8002fbe:	bf00      	nop
 8002fc0:	bf00      	nop
 8002fc2:	e7fd      	b.n	8002fc0 <xTaskCreateStatic+0x68>
 8002fc4:	693b      	ldr	r3, [r7, #16]
 8002fc6:	6bbb      	ldr	r3, [r7, #56]	@ 0x38
 8002fc8:	2b00      	cmp	r3, #0
 8002fca:	d01e      	beq.n	800300a <xTaskCreateStatic+0xb2>
 8002fcc:	6b7b      	ldr	r3, [r7, #52]	@ 0x34
 8002fce:	2b00      	cmp	r3, #0
 8002fd0:	d01b      	beq.n	800300a <xTaskCreateStatic+0xb2>
 8002fd2:	6bbb      	ldr	r3, [r7, #56]	@ 0x38
 8002fd4:	627b      	str	r3, [r7, #36]	@ 0x24
 8002fd6:	6a7b      	ldr	r3, [r7, #36]	@ 0x24
 8002fd8:	6b7a      	ldr	r2, [r7, #52]	@ 0x34
 8002fda:	631a      	str	r2, [r3, #48]	@ 0x30
 8002fdc:	6a7b      	ldr	r3, [r7, #36]	@ 0x24
 8002fde:	2202      	movs	r2, #2
 8002fe0:	f883 2059 	strb.w	r2, [r3, #89]	@ 0x59
 8002fe4:	2300      	movs	r3, #0
 8002fe6:	9303      	str	r3, [sp, #12]
 8002fe8:	6a7b      	ldr	r3, [r7, #36]	@ 0x24
 8002fea:	9302      	str	r3, [sp, #8]
 8002fec:	f107 0314 	add.w	r3, r7, #20
 8002ff0:	9301      	str	r3, [sp, #4]
 8002ff2:	6b3b      	ldr	r3, [r7, #48]	@ 0x30
 8002ff4:	9300      	str	r3, [sp, #0]
 8002ff6:	683b      	ldr	r3, [r7, #0]
 8002ff8:	687a      	ldr	r2, [r7, #4]
 8002ffa:	68b9      	ldr	r1, [r7, #8]
 8002ffc:	68f8      	ldr	r0, [r7, #12]
 8002ffe:	f000 f850 	bl	80030a2 <prvInitialiseNewTask>
 8003002:	6a78      	ldr	r0, [r7, #36]	@ 0x24
 8003004:	f000 f8de 	bl	80031c4 <prvAddNewTaskToReadyList>
 8003008:	e001      	b.n	800300e <xTaskCreateStatic+0xb6>
 800300a:	2300      	movs	r3, #0
 800300c:	617b      	str	r3, [r7, #20]
 800300e:	697b      	ldr	r3, [r7, #20]
 8003010:	4618      	mov	r0, r3
 8003012:	3728      	adds	r7, #40	@ 0x28
 8003014:	46bd      	mov	sp, r7
 8003016:	bd80      	pop	{r7, pc}

08003018 <xTaskCreate>:
 8003018:	b580      	push	{r7, lr}
 800301a:	b08c      	sub	sp, #48	@ 0x30
 800301c:	af04      	add	r7, sp, #16
 800301e:	60f8      	str	r0, [r7, #12]
 8003020:	60b9      	str	r1, [r7, #8]
 8003022:	603b      	str	r3, [r7, #0]
 8003024:	4613      	mov	r3, r2
 8003026:	80fb      	strh	r3, [r7, #6]
 8003028:	88fb      	ldrh	r3, [r7, #6]
 800302a:	009b      	lsls	r3, r3, #2
 800302c:	4618      	mov	r0, r3
 800302e:	f001 fc15 	bl	800485c <pvPortMalloc>
 8003032:	6178      	str	r0, [r7, #20]
 8003034:	697b      	ldr	r3, [r7, #20]
 8003036:	2b00      	cmp	r3, #0
 8003038:	d00e      	beq.n	8003058 <xTaskCreate+0x40>
 800303a:	205c      	movs	r0, #92	@ 0x5c
 800303c:	f001 fc0e 	bl	800485c <pvPortMalloc>
 8003040:	61f8      	str	r0, [r7, #28]
 8003042:	69fb      	ldr	r3, [r7, #28]
 8003044:	2b00      	cmp	r3, #0
 8003046:	d003      	beq.n	8003050 <xTaskCreate+0x38>
 8003048:	69fb      	ldr	r3, [r7, #28]
 800304a:	697a      	ldr	r2, [r7, #20]
 800304c:	631a      	str	r2, [r3, #48]	@ 0x30
 800304e:	e005      	b.n	800305c <xTaskCreate+0x44>
 8003050:	6978      	ldr	r0, [r7, #20]
 8003052:	f001 fcd1 	bl	80049f8 <vPortFree>
 8003056:	e001      	b.n	800305c <xTaskCreate+0x44>
 8003058:	2300      	movs	r3, #0
 800305a:	61fb      	str	r3, [r7, #28]
 800305c:	69fb      	ldr	r3, [r7, #28]
 800305e:	2b00      	cmp	r3, #0
 8003060:	d017      	beq.n	8003092 <xTaskCreate+0x7a>
 8003062:	69fb      	ldr	r3, [r7, #28]
 8003064:	2200      	movs	r2, #0
 8003066:	f883 2059 	strb.w	r2, [r3, #89]	@ 0x59
 800306a:	88fa      	ldrh	r2, [r7, #6]
 800306c:	2300      	movs	r3, #0
 800306e:	9303      	str	r3, [sp, #12]
 8003070:	69fb      	ldr	r3, [r7, #28]
 8003072:	9302      	str	r3, [sp, #8]
 8003074:	6afb      	ldr	r3, [r7, #44]	@ 0x2c
 8003076:	9301      	str	r3, [sp, #4]
 8003078:	6abb      	ldr	r3, [r7, #40]	@ 0x28
 800307a:	9300      	str	r3, [sp, #0]
 800307c:	683b      	ldr	r3, [r7, #0]
 800307e:	68b9      	ldr	r1, [r7, #8]
 8003080:	68f8      	ldr	r0, [r7, #12]
 8003082:	f000 f80e 	bl	80030a2 <prvInitialiseNewTask>
 8003086:	69f8      	ldr	r0, [r7, #28]
 8003088:	f000 f89c 	bl	80031c4 <prvAddNewTaskToReadyList>
 800308c:	2301      	movs	r3, #1
 800308e:	61bb      	str	r3, [r7, #24]
 8003090:	e002      	b.n	8003098 <xTaskCreate+0x80>
 8003092:	f04f 33ff 	mov.w	r3, #4294967295
 8003096:	61bb      	str	r3, [r7, #24]
 8003098:	69bb      	ldr	r3, [r7, #24]
 800309a:	4618      	mov	r0, r3
 800309c:	3720      	adds	r7, #32
 800309e:	46bd      	mov	sp, r7
 80030a0:	bd80      	pop	{r7, pc}

080030a2 <prvInitialiseNewTask>:
 80030a2:	b580      	push	{r7, lr}
 80030a4:	b088      	sub	sp, #32
 80030a6:	af00      	add	r7, sp, #0
 80030a8:	60f8      	str	r0, [r7, #12]
 80030aa:	60b9      	str	r1, [r7, #8]
 80030ac:	607a      	str	r2, [r7, #4]
 80030ae:	603b      	str	r3, [r7, #0]
 80030b0:	6b3b      	ldr	r3, [r7, #48]	@ 0x30
 80030b2:	6b18      	ldr	r0, [r3, #48]	@ 0x30
 80030b4:	687b      	ldr	r3, [r7, #4]
 80030b6:	009b      	lsls	r3, r3, #2
 80030b8:	461a      	mov	r2, r3
 80030ba:	21a5      	movs	r1, #165	@ 0xa5
 80030bc:	f001 fdbc 	bl	8004c38 <memset>
 80030c0:	6b3b      	ldr	r3, [r7, #48]	@ 0x30
 80030c2:	6b1a      	ldr	r2, [r3, #48]	@ 0x30
 80030c4:	687b      	ldr	r3, [r7, #4]
 80030c6:	f103 4380 	add.w	r3, r3, #1073741824	@ 0x40000000
 80030ca:	3b01      	subs	r3, #1
 80030cc:	009b      	lsls	r3, r3, #2
 80030ce:	4413      	add	r3, r2
 80030d0:	61bb      	str	r3, [r7, #24]
 80030d2:	69bb      	ldr	r3, [r7, #24]
 80030d4:	f023 0307 	bic.w	r3, r3, #7
 80030d8:	61bb      	str	r3, [r7, #24]
 80030da:	69bb      	ldr	r3, [r7, #24]
 80030dc:	f003 0307 	and.w	r3, r3, #7
 80030e0:	2b00      	cmp	r3, #0
 80030e2:	d00b      	beq.n	80030fc <prvInitialiseNewTask+0x5a>
 80030e4:	f04f 0350 	mov.w	r3, #80	@ 0x50
 80030e8:	f383 8811 	msr	BASEPRI, r3
 80030ec:	f3bf 8f6f 	isb	sy
 80030f0:	f3bf 8f4f 	dsb	sy
 80030f4:	617b      	str	r3, [r7, #20]
 80030f6:	bf00      	nop
 80030f8:	bf00      	nop
 80030fa:	e7fd      	b.n	80030f8 <prvInitialiseNewTask+0x56>
 80030fc:	68bb      	ldr	r3, [r7, #8]
 80030fe:	2b00      	cmp	r3, #0
 8003100:	d01f      	beq.n	8003142 <prvInitialiseNewTask+0xa0>
 8003102:	2300      	movs	r3, #0
 8003104:	61fb      	str	r3, [r7, #28]
 8003106:	e012      	b.n	800312e <prvInitialiseNewTask+0x8c>
 8003108:	68ba      	ldr	r2, [r7, #8]
 800310a:	69fb      	ldr	r3, [r7, #28]
 800310c:	4413      	add	r3, r2
 800310e:	7819      	ldrb	r1, [r3, #0]
 8003110:	6b3a      	ldr	r2, [r7, #48]	@ 0x30
 8003112:	69fb      	ldr	r3, [r7, #28]
 8003114:	4413      	add	r3, r2
 8003116:	3334      	adds	r3, #52	@ 0x34
 8003118:	460a      	mov	r2, r1
 800311a:	701a      	strb	r2, [r3, #0]
 800311c:	68ba      	ldr	r2, [r7, #8]
 800311e:	69fb      	ldr	r3, [r7, #28]
 8003120:	4413      	add	r3, r2
 8003122:	781b      	ldrb	r3, [r3, #0]
 8003124:	2b00      	cmp	r3, #0
 8003126:	d006      	beq.n	8003136 <prvInitialiseNewTask+0x94>
 8003128:	69fb      	ldr	r3, [r7, #28]
 800312a:	3301      	adds	r3, #1
 800312c:	61fb      	str	r3, [r7, #28]
 800312e:	69fb      	ldr	r3, [r7, #28]
 8003130:	2b0f      	cmp	r3, #15
 8003132:	d9e9      	bls.n	8003108 <prvInitialiseNewTask+0x66>
 8003134:	e000      	b.n	8003138 <prvInitialiseNewTask+0x96>
 8003136:	bf00      	nop
 8003138:	6b3b      	ldr	r3, [r7, #48]	@ 0x30
 800313a:	2200      	movs	r2, #0
 800313c:	f883 2043 	strb.w	r2, [r3, #67]	@ 0x43
 8003140:	e003      	b.n	800314a <prvInitialiseNewTask+0xa8>
 8003142:	6b3b      	ldr	r3, [r7, #48]	@ 0x30
 8003144:	2200      	movs	r2, #0
 8003146:	f883 2034 	strb.w	r2, [r3, #52]	@ 0x34
 800314a:	6abb      	ldr	r3, [r7, #40]	@ 0x28
 800314c:	2b37      	cmp	r3, #55	@ 0x37
 800314e:	d901      	bls.n	8003154 <prvInitialiseNewTask+0xb2>
 8003150:	2337      	movs	r3, #55	@ 0x37
 8003152:	62bb      	str	r3, [r7, #40]	@ 0x28
 8003154:	6b3b      	ldr	r3, [r7, #48]	@ 0x30
 8003156:	6aba      	ldr	r2, [r7, #40]	@ 0x28
 8003158:	62da      	str	r2, [r3, #44]	@ 0x2c
 800315a:	6b3b      	ldr	r3, [r7, #48]	@ 0x30
 800315c:	6aba      	ldr	r2, [r7, #40]	@ 0x28
 800315e:	64da      	str	r2, [r3, #76]	@ 0x4c
 8003160:	6b3b      	ldr	r3, [r7, #48]	@ 0x30
 8003162:	2200      	movs	r2, #0
 8003164:	651a      	str	r2, [r3, #80]	@ 0x50
 8003166:	6b3b      	ldr	r3, [r7, #48]	@ 0x30
 8003168:	3304      	adds	r3, #4
 800316a:	4618      	mov	r0, r3
 800316c:	f7ff f966 	bl	800243c <vListInitialiseItem>
 8003170:	6b3b      	ldr	r3, [r7, #48]	@ 0x30
 8003172:	3318      	adds	r3, #24
 8003174:	4618      	mov	r0, r3
 8003176:	f7ff f961 	bl	800243c <vListInitialiseItem>
 800317a:	6b3b      	ldr	r3, [r7, #48]	@ 0x30
 800317c:	6b3a      	ldr	r2, [r7, #48]	@ 0x30
 800317e:	611a      	str	r2, [r3, #16]
 8003180:	6abb      	ldr	r3, [r7, #40]	@ 0x28
 8003182:	f1c3 0238 	rsb	r2, r3, #56	@ 0x38
 8003186:	6b3b      	ldr	r3, [r7, #48]	@ 0x30
 8003188:	619a      	str	r2, [r3, #24]
 800318a:	6b3b      	ldr	r3, [r7, #48]	@ 0x30
 800318c:	6b3a      	ldr	r2, [r7, #48]	@ 0x30
 800318e:	625a      	str	r2, [r3, #36]	@ 0x24
 8003190:	6b3b      	ldr	r3, [r7, #48]	@ 0x30
 8003192:	2200      	movs	r2, #0
 8003194:	655a      	str	r2, [r3, #84]	@ 0x54
 8003196:	6b3b      	ldr	r3, [r7, #48]	@ 0x30
 8003198:	2200      	movs	r2, #0
 800319a:	f883 2058 	strb.w	r2, [r3, #88]	@ 0x58
 800319e:	683a      	ldr	r2, [r7, #0]
 80031a0:	68f9      	ldr	r1, [r7, #12]
 80031a2:	69b8      	ldr	r0, [r7, #24]
 80031a4:	f001 f908 	bl	80043b8 <pxPortInitialiseStack>
 80031a8:	4602      	mov	r2, r0
 80031aa:	6b3b      	ldr	r3, [r7, #48]	@ 0x30
 80031ac:	601a      	str	r2, [r3, #0]
 80031ae:	6afb      	ldr	r3, [r7, #44]	@ 0x2c
 80031b0:	2b00      	cmp	r3, #0
 80031b2:	d002      	beq.n	80031ba <prvInitialiseNewTask+0x118>
 80031b4:	6afb      	ldr	r3, [r7, #44]	@ 0x2c
 80031b6:	6b3a      	ldr	r2, [r7, #48]	@ 0x30
 80031b8:	601a      	str	r2, [r3, #0]
 80031ba:	bf00      	nop
 80031bc:	3720      	adds	r7, #32
 80031be:	46bd      	mov	sp, r7
 80031c0:	bd80      	pop	{r7, pc}
	...

080031c4 <prvAddNewTaskToReadyList>:
 80031c4:	b580      	push	{r7, lr}
 80031c6:	b082      	sub	sp, #8
 80031c8:	af00      	add	r7, sp, #0
 80031ca:	6078      	str	r0, [r7, #4]
 80031cc:	f001 fa24 	bl	8004618 <vPortEnterCritical>
 80031d0:	4b2d      	ldr	r3, [pc, #180]	@ (8003288 <prvAddNewTaskToReadyList+0xc4>)
 80031d2:	681b      	ldr	r3, [r3, #0]
 80031d4:	3301      	adds	r3, #1
 80031d6:	4a2c      	ldr	r2, [pc, #176]	@ (8003288 <prvAddNewTaskToReadyList+0xc4>)
 80031d8:	6013      	str	r3, [r2, #0]
 80031da:	4b2c      	ldr	r3, [pc, #176]	@ (800328c <prvAddNewTaskToReadyList+0xc8>)
 80031dc:	681b      	ldr	r3, [r3, #0]
 80031de:	2b00      	cmp	r3, #0
 80031e0:	d109      	bne.n	80031f6 <prvAddNewTaskToReadyList+0x32>
 80031e2:	4a2a      	ldr	r2, [pc, #168]	@ (800328c <prvAddNewTaskToReadyList+0xc8>)
 80031e4:	687b      	ldr	r3, [r7, #4]
 80031e6:	6013      	str	r3, [r2, #0]
 80031e8:	4b27      	ldr	r3, [pc, #156]	@ (8003288 <prvAddNewTaskToReadyList+0xc4>)
 80031ea:	681b      	ldr	r3, [r3, #0]
 80031ec:	2b01      	cmp	r3, #1
 80031ee:	d110      	bne.n	8003212 <prvAddNewTaskToReadyList+0x4e>
 80031f0:	f000 fbe8 	bl	80039c4 <prvInitialiseTaskLists>
 80031f4:	e00d      	b.n	8003212 <prvAddNewTaskToReadyList+0x4e>
 80031f6:	4b26      	ldr	r3, [pc, #152]	@ (8003290 <prvAddNewTaskToReadyList+0xcc>)
 80031f8:	681b      	ldr	r3, [r3, #0]
 80031fa:	2b00      	cmp	r3, #0
 80031fc:	d109      	bne.n	8003212 <prvAddNewTaskToReadyList+0x4e>
 80031fe:	4b23      	ldr	r3, [pc, #140]	@ (800328c <prvAddNewTaskToReadyList+0xc8>)
 8003200:	681b      	ldr	r3, [r3, #0]
 8003202:	6ada      	ldr	r2, [r3, #44]	@ 0x2c
 8003204:	687b      	ldr	r3, [r7, #4]
 8003206:	6adb      	ldr	r3, [r3, #44]	@ 0x2c
 8003208:	429a      	cmp	r2, r3
 800320a:	d802      	bhi.n	8003212 <prvAddNewTaskToReadyList+0x4e>
 800320c:	4a1f      	ldr	r2, [pc, #124]	@ (800328c <prvAddNewTaskToReadyList+0xc8>)
 800320e:	687b      	ldr	r3, [r7, #4]
 8003210:	6013      	str	r3, [r2, #0]
 8003212:	4b20      	ldr	r3, [pc, #128]	@ (8003294 <prvAddNewTaskToReadyList+0xd0>)
 8003214:	681b      	ldr	r3, [r3, #0]
 8003216:	3301      	adds	r3, #1
 8003218:	4a1e      	ldr	r2, [pc, #120]	@ (8003294 <prvAddNewTaskToReadyList+0xd0>)
 800321a:	6013      	str	r3, [r2, #0]
 800321c:	4b1d      	ldr	r3, [pc, #116]	@ (8003294 <prvAddNewTaskToReadyList+0xd0>)
 800321e:	681a      	ldr	r2, [r3, #0]
 8003220:	687b      	ldr	r3, [r7, #4]
 8003222:	645a      	str	r2, [r3, #68]	@ 0x44
 8003224:	687b      	ldr	r3, [r7, #4]
 8003226:	6ada      	ldr	r2, [r3, #44]	@ 0x2c
 8003228:	4b1b      	ldr	r3, [pc, #108]	@ (8003298 <prvAddNewTaskToReadyList+0xd4>)
 800322a:	681b      	ldr	r3, [r3, #0]
 800322c:	429a      	cmp	r2, r3
 800322e:	d903      	bls.n	8003238 <prvAddNewTaskToReadyList+0x74>
 8003230:	687b      	ldr	r3, [r7, #4]
 8003232:	6adb      	ldr	r3, [r3, #44]	@ 0x2c
 8003234:	4a18      	ldr	r2, [pc, #96]	@ (8003298 <prvAddNewTaskToReadyList+0xd4>)
 8003236:	6013      	str	r3, [r2, #0]
 8003238:	687b      	ldr	r3, [r7, #4]
 800323a:	6ada      	ldr	r2, [r3, #44]	@ 0x2c
 800323c:	4613      	mov	r3, r2
 800323e:	009b      	lsls	r3, r3, #2
 8003240:	4413      	add	r3, r2
 8003242:	009b      	lsls	r3, r3, #2
 8003244:	4a15      	ldr	r2, [pc, #84]	@ (800329c <prvAddNewTaskToReadyList+0xd8>)
 8003246:	441a      	add	r2, r3
 8003248:	687b      	ldr	r3, [r7, #4]
 800324a:	3304      	adds	r3, #4
 800324c:	4619      	mov	r1, r3
 800324e:	4610      	mov	r0, r2
 8003250:	f7ff f901 	bl	8002456 <vListInsertEnd>
 8003254:	f001 fa12 	bl	800467c <vPortExitCritical>
 8003258:	4b0d      	ldr	r3, [pc, #52]	@ (8003290 <prvAddNewTaskToReadyList+0xcc>)
 800325a:	681b      	ldr	r3, [r3, #0]
 800325c:	2b00      	cmp	r3, #0
 800325e:	d00e      	beq.n	800327e <prvAddNewTaskToReadyList+0xba>
 8003260:	4b0a      	ldr	r3, [pc, #40]	@ (800328c <prvAddNewTaskToReadyList+0xc8>)
 8003262:	681b      	ldr	r3, [r3, #0]
 8003264:	6ada      	ldr	r2, [r3, #44]	@ 0x2c
 8003266:	687b      	ldr	r3, [r7, #4]
 8003268:	6adb      	ldr	r3, [r3, #44]	@ 0x2c
 800326a:	429a      	cmp	r2, r3
 800326c:	d207      	bcs.n	800327e <prvAddNewTaskToReadyList+0xba>
 800326e:	4b0c      	ldr	r3, [pc, #48]	@ (80032a0 <prvAddNewTaskToReadyList+0xdc>)
 8003270:	f04f 5280 	mov.w	r2, #268435456	@ 0x10000000
 8003274:	601a      	str	r2, [r3, #0]
 8003276:	f3bf 8f4f 	dsb	sy
 800327a:	f3bf 8f6f 	isb	sy
 800327e:	bf00      	nop
 8003280:	3708      	adds	r7, #8
 8003282:	46bd      	mov	sp, r7
 8003284:	bd80      	pop	{r7, pc}
 8003286:	bf00      	nop
 8003288:	20000c90 	.word	0x20000c90
 800328c:	200007bc 	.word	0x200007bc
 8003290:	20000c9c 	.word	0x20000c9c
 8003294:	20000cac 	.word	0x20000cac
 8003298:	20000c98 	.word	0x20000c98
 800329c:	200007c0 	.word	0x200007c0
 80032a0:	e000ed04 	.word	0xe000ed04

080032a4 <vTaskStartScheduler>:
 80032a4:	b580      	push	{r7, lr}
 80032a6:	b08a      	sub	sp, #40	@ 0x28
 80032a8:	af04      	add	r7, sp, #16
 80032aa:	2300      	movs	r3, #0
 80032ac:	60bb      	str	r3, [r7, #8]
 80032ae:	2300      	movs	r3, #0
 80032b0:	607b      	str	r3, [r7, #4]
 80032b2:	463a      	mov	r2, r7
 80032b4:	1d39      	adds	r1, r7, #4
 80032b6:	f107 0308 	add.w	r3, r7, #8
 80032ba:	4618      	mov	r0, r3
 80032bc:	f7ff f86a 	bl	8002394 <vApplicationGetIdleTaskMemory>
 80032c0:	6839      	ldr	r1, [r7, #0]
 80032c2:	687b      	ldr	r3, [r7, #4]
 80032c4:	68ba      	ldr	r2, [r7, #8]
 80032c6:	9202      	str	r2, [sp, #8]
 80032c8:	9301      	str	r3, [sp, #4]
 80032ca:	2300      	movs	r3, #0
 80032cc:	9300      	str	r3, [sp, #0]
 80032ce:	2300      	movs	r3, #0
 80032d0:	460a      	mov	r2, r1
 80032d2:	4922      	ldr	r1, [pc, #136]	@ (800335c <vTaskStartScheduler+0xb8>)
 80032d4:	4822      	ldr	r0, [pc, #136]	@ (8003360 <vTaskStartScheduler+0xbc>)
 80032d6:	f7ff fe3f 	bl	8002f58 <xTaskCreateStatic>
 80032da:	4603      	mov	r3, r0
 80032dc:	4a21      	ldr	r2, [pc, #132]	@ (8003364 <vTaskStartScheduler+0xc0>)
 80032de:	6013      	str	r3, [r2, #0]
 80032e0:	4b20      	ldr	r3, [pc, #128]	@ (8003364 <vTaskStartScheduler+0xc0>)
 80032e2:	681b      	ldr	r3, [r3, #0]
 80032e4:	2b00      	cmp	r3, #0
 80032e6:	d002      	beq.n	80032ee <vTaskStartScheduler+0x4a>
 80032e8:	2301      	movs	r3, #1
 80032ea:	617b      	str	r3, [r7, #20]
 80032ec:	e001      	b.n	80032f2 <vTaskStartScheduler+0x4e>
 80032ee:	2300      	movs	r3, #0
 80032f0:	617b      	str	r3, [r7, #20]
 80032f2:	697b      	ldr	r3, [r7, #20]
 80032f4:	2b01      	cmp	r3, #1
 80032f6:	d102      	bne.n	80032fe <vTaskStartScheduler+0x5a>
 80032f8:	f000 fd04 	bl	8003d04 <xTimerCreateTimerTask>
 80032fc:	6178      	str	r0, [r7, #20]
 80032fe:	697b      	ldr	r3, [r7, #20]
 8003300:	2b01      	cmp	r3, #1
 8003302:	d116      	bne.n	8003332 <vTaskStartScheduler+0x8e>
 8003304:	f04f 0350 	mov.w	r3, #80	@ 0x50
 8003308:	f383 8811 	msr	BASEPRI, r3
 800330c:	f3bf 8f6f 	isb	sy
 8003310:	f3bf 8f4f 	dsb	sy
 8003314:	613b      	str	r3, [r7, #16]
 8003316:	bf00      	nop
 8003318:	4b13      	ldr	r3, [pc, #76]	@ (8003368 <vTaskStartScheduler+0xc4>)
 800331a:	f04f 32ff 	mov.w	r2, #4294967295
 800331e:	601a      	str	r2, [r3, #0]
 8003320:	4b12      	ldr	r3, [pc, #72]	@ (800336c <vTaskStartScheduler+0xc8>)
 8003322:	2201      	movs	r2, #1
 8003324:	601a      	str	r2, [r3, #0]
 8003326:	4b12      	ldr	r3, [pc, #72]	@ (8003370 <vTaskStartScheduler+0xcc>)
 8003328:	2200      	movs	r2, #0
 800332a:	601a      	str	r2, [r3, #0]
 800332c:	f001 f8d0 	bl	80044d0 <xPortStartScheduler>
 8003330:	e00f      	b.n	8003352 <vTaskStartScheduler+0xae>
 8003332:	697b      	ldr	r3, [r7, #20]
 8003334:	f1b3 3fff 	cmp.w	r3, #4294967295
 8003338:	d10b      	bne.n	8003352 <vTaskStartScheduler+0xae>
 800333a:	f04f 0350 	mov.w	r3, #80	@ 0x50
 800333e:	f383 8811 	msr	BASEPRI, r3
 8003342:	f3bf 8f6f 	isb	sy
 8003346:	f3bf 8f4f 	dsb	sy
 800334a:	60fb      	str	r3, [r7, #12]
 800334c:	bf00      	nop
 800334e:	bf00      	nop
 8003350:	e7fd      	b.n	800334e <vTaskStartScheduler+0xaa>
 8003352:	bf00      	nop
 8003354:	3718      	adds	r7, #24
 8003356:	46bd      	mov	sp, r7
 8003358:	bd80      	pop	{r7, pc}
 800335a:	bf00      	nop
 800335c:	08004cd0 	.word	0x08004cd0
 8003360:	08003995 	.word	0x08003995
 8003364:	20000cb4 	.word	0x20000cb4
 8003368:	20000cb0 	.word	0x20000cb0
 800336c:	20000c9c 	.word	0x20000c9c
 8003370:	20000c94 	.word	0x20000c94

08003374 <vTaskSuspendAll>:
 8003374:	b480      	push	{r7}
 8003376:	af00      	add	r7, sp, #0
 8003378:	4b04      	ldr	r3, [pc, #16]	@ (800338c <vTaskSuspendAll+0x18>)
 800337a:	681b      	ldr	r3, [r3, #0]
 800337c:	3301      	adds	r3, #1
 800337e:	4a03      	ldr	r2, [pc, #12]	@ (800338c <vTaskSuspendAll+0x18>)
 8003380:	6013      	str	r3, [r2, #0]
 8003382:	bf00      	nop
 8003384:	46bd      	mov	sp, r7
 8003386:	f85d 7b04 	ldr.w	r7, [sp], #4
 800338a:	4770      	bx	lr
 800338c:	20000cb8 	.word	0x20000cb8

08003390 <xTaskResumeAll>:
 8003390:	b580      	push	{r7, lr}
 8003392:	b084      	sub	sp, #16
 8003394:	af00      	add	r7, sp, #0
 8003396:	2300      	movs	r3, #0
 8003398:	60fb      	str	r3, [r7, #12]
 800339a:	2300      	movs	r3, #0
 800339c:	60bb      	str	r3, [r7, #8]
 800339e:	4b42      	ldr	r3, [pc, #264]	@ (80034a8 <xTaskResumeAll+0x118>)
 80033a0:	681b      	ldr	r3, [r3, #0]
 80033a2:	2b00      	cmp	r3, #0
 80033a4:	d10b      	bne.n	80033be <xTaskResumeAll+0x2e>
 80033a6:	f04f 0350 	mov.w	r3, #80	@ 0x50
 80033aa:	f383 8811 	msr	BASEPRI, r3
 80033ae:	f3bf 8f6f 	isb	sy
 80033b2:	f3bf 8f4f 	dsb	sy
 80033b6:	603b      	str	r3, [r7, #0]
 80033b8:	bf00      	nop
 80033ba:	bf00      	nop
 80033bc:	e7fd      	b.n	80033ba <xTaskResumeAll+0x2a>
 80033be:	f001 f92b 	bl	8004618 <vPortEnterCritical>
 80033c2:	4b39      	ldr	r3, [pc, #228]	@ (80034a8 <xTaskResumeAll+0x118>)
 80033c4:	681b      	ldr	r3, [r3, #0]
 80033c6:	3b01      	subs	r3, #1
 80033c8:	4a37      	ldr	r2, [pc, #220]	@ (80034a8 <xTaskResumeAll+0x118>)
 80033ca:	6013      	str	r3, [r2, #0]
 80033cc:	4b36      	ldr	r3, [pc, #216]	@ (80034a8 <xTaskResumeAll+0x118>)
 80033ce:	681b      	ldr	r3, [r3, #0]
 80033d0:	2b00      	cmp	r3, #0
 80033d2:	d162      	bne.n	800349a <xTaskResumeAll+0x10a>
 80033d4:	4b35      	ldr	r3, [pc, #212]	@ (80034ac <xTaskResumeAll+0x11c>)
 80033d6:	681b      	ldr	r3, [r3, #0]
 80033d8:	2b00      	cmp	r3, #0
 80033da:	d05e      	beq.n	800349a <xTaskResumeAll+0x10a>
 80033dc:	e02f      	b.n	800343e <xTaskResumeAll+0xae>
 80033de:	4b34      	ldr	r3, [pc, #208]	@ (80034b0 <xTaskResumeAll+0x120>)
 80033e0:	68db      	ldr	r3, [r3, #12]
 80033e2:	68db      	ldr	r3, [r3, #12]
 80033e4:	60fb      	str	r3, [r7, #12]
 80033e6:	68fb      	ldr	r3, [r7, #12]
 80033e8:	3318      	adds	r3, #24
 80033ea:	4618      	mov	r0, r3
 80033ec:	f7ff f890 	bl	8002510 <uxListRemove>
 80033f0:	68fb      	ldr	r3, [r7, #12]
 80033f2:	3304      	adds	r3, #4
 80033f4:	4618      	mov	r0, r3
 80033f6:	f7ff f88b 	bl	8002510 <uxListRemove>
 80033fa:	68fb      	ldr	r3, [r7, #12]
 80033fc:	6ada      	ldr	r2, [r3, #44]	@ 0x2c
 80033fe:	4b2d      	ldr	r3, [pc, #180]	@ (80034b4 <xTaskResumeAll+0x124>)
 8003400:	681b      	ldr	r3, [r3, #0]
 8003402:	429a      	cmp	r2, r3
 8003404:	d903      	bls.n	800340e <xTaskResumeAll+0x7e>
 8003406:	68fb      	ldr	r3, [r7, #12]
 8003408:	6adb      	ldr	r3, [r3, #44]	@ 0x2c
 800340a:	4a2a      	ldr	r2, [pc, #168]	@ (80034b4 <xTaskResumeAll+0x124>)
 800340c:	6013      	str	r3, [r2, #0]
 800340e:	68fb      	ldr	r3, [r7, #12]
 8003410:	6ada      	ldr	r2, [r3, #44]	@ 0x2c
 8003412:	4613      	mov	r3, r2
 8003414:	009b      	lsls	r3, r3, #2
 8003416:	4413      	add	r3, r2
 8003418:	009b      	lsls	r3, r3, #2
 800341a:	4a27      	ldr	r2, [pc, #156]	@ (80034b8 <xTaskResumeAll+0x128>)
 800341c:	441a      	add	r2, r3
 800341e:	68fb      	ldr	r3, [r7, #12]
 8003420:	3304      	adds	r3, #4
 8003422:	4619      	mov	r1, r3
 8003424:	4610      	mov	r0, r2
 8003426:	f7ff f816 	bl	8002456 <vListInsertEnd>
 800342a:	68fb      	ldr	r3, [r7, #12]
 800342c:	6ada      	ldr	r2, [r3, #44]	@ 0x2c
 800342e:	4b23      	ldr	r3, [pc, #140]	@ (80034bc <xTaskResumeAll+0x12c>)
 8003430:	681b      	ldr	r3, [r3, #0]
 8003432:	6adb      	ldr	r3, [r3, #44]	@ 0x2c
 8003434:	429a      	cmp	r2, r3
 8003436:	d302      	bcc.n	800343e <xTaskResumeAll+0xae>
 8003438:	4b21      	ldr	r3, [pc, #132]	@ (80034c0 <xTaskResumeAll+0x130>)
 800343a:	2201      	movs	r2, #1
 800343c:	601a      	str	r2, [r3, #0]
 800343e:	4b1c      	ldr	r3, [pc, #112]	@ (80034b0 <xTaskResumeAll+0x120>)
 8003440:	681b      	ldr	r3, [r3, #0]
 8003442:	2b00      	cmp	r3, #0
 8003444:	d1cb      	bne.n	80033de <xTaskResumeAll+0x4e>
 8003446:	68fb      	ldr	r3, [r7, #12]
 8003448:	2b00      	cmp	r3, #0
 800344a:	d001      	beq.n	8003450 <xTaskResumeAll+0xc0>
 800344c:	f000 fb58 	bl	8003b00 <prvResetNextTaskUnblockTime>
 8003450:	4b1c      	ldr	r3, [pc, #112]	@ (80034c4 <xTaskResumeAll+0x134>)
 8003452:	681b      	ldr	r3, [r3, #0]
 8003454:	607b      	str	r3, [r7, #4]
 8003456:	687b      	ldr	r3, [r7, #4]
 8003458:	2b00      	cmp	r3, #0
 800345a:	d010      	beq.n	800347e <xTaskResumeAll+0xee>
 800345c:	f000 f846 	bl	80034ec <xTaskIncrementTick>
 8003460:	4603      	mov	r3, r0
 8003462:	2b00      	cmp	r3, #0
 8003464:	d002      	beq.n	800346c <xTaskResumeAll+0xdc>
 8003466:	4b16      	ldr	r3, [pc, #88]	@ (80034c0 <xTaskResumeAll+0x130>)
 8003468:	2201      	movs	r2, #1
 800346a:	601a      	str	r2, [r3, #0]
 800346c:	687b      	ldr	r3, [r7, #4]
 800346e:	3b01      	subs	r3, #1
 8003470:	607b      	str	r3, [r7, #4]
 8003472:	687b      	ldr	r3, [r7, #4]
 8003474:	2b00      	cmp	r3, #0
 8003476:	d1f1      	bne.n	800345c <xTaskResumeAll+0xcc>
 8003478:	4b12      	ldr	r3, [pc, #72]	@ (80034c4 <xTaskResumeAll+0x134>)
 800347a:	2200      	movs	r2, #0
 800347c:	601a      	str	r2, [r3, #0]
 800347e:	4b10      	ldr	r3, [pc, #64]	@ (80034c0 <xTaskResumeAll+0x130>)
 8003480:	681b      	ldr	r3, [r3, #0]
 8003482:	2b00      	cmp	r3, #0
 8003484:	d009      	beq.n	800349a <xTaskResumeAll+0x10a>
 8003486:	2301      	movs	r3, #1
 8003488:	60bb      	str	r3, [r7, #8]
 800348a:	4b0f      	ldr	r3, [pc, #60]	@ (80034c8 <xTaskResumeAll+0x138>)
 800348c:	f04f 5280 	mov.w	r2, #268435456	@ 0x10000000
 8003490:	601a      	str	r2, [r3, #0]
 8003492:	f3bf 8f4f 	dsb	sy
 8003496:	f3bf 8f6f 	isb	sy
 800349a:	f001 f8ef 	bl	800467c <vPortExitCritical>
 800349e:	68bb      	ldr	r3, [r7, #8]
 80034a0:	4618      	mov	r0, r3
 80034a2:	3710      	adds	r7, #16
 80034a4:	46bd      	mov	sp, r7
 80034a6:	bd80      	pop	{r7, pc}
 80034a8:	20000cb8 	.word	0x20000cb8
 80034ac:	20000c90 	.word	0x20000c90
 80034b0:	20000c50 	.word	0x20000c50
 80034b4:	20000c98 	.word	0x20000c98
 80034b8:	200007c0 	.word	0x200007c0
 80034bc:	200007bc 	.word	0x200007bc
 80034c0:	20000ca4 	.word	0x20000ca4
 80034c4:	20000ca0 	.word	0x20000ca0
 80034c8:	e000ed04 	.word	0xe000ed04

080034cc <xTaskGetTickCount>:
 80034cc:	b480      	push	{r7}
 80034ce:	b083      	sub	sp, #12
 80034d0:	af00      	add	r7, sp, #0
 80034d2:	4b05      	ldr	r3, [pc, #20]	@ (80034e8 <xTaskGetTickCount+0x1c>)
 80034d4:	681b      	ldr	r3, [r3, #0]
 80034d6:	607b      	str	r3, [r7, #4]
 80034d8:	687b      	ldr	r3, [r7, #4]
 80034da:	4618      	mov	r0, r3
 80034dc:	370c      	adds	r7, #12
 80034de:	46bd      	mov	sp, r7
 80034e0:	f85d 7b04 	ldr.w	r7, [sp], #4
 80034e4:	4770      	bx	lr
 80034e6:	bf00      	nop
 80034e8:	20000c94 	.word	0x20000c94

080034ec <xTaskIncrementTick>:
 80034ec:	b580      	push	{r7, lr}
 80034ee:	b086      	sub	sp, #24
 80034f0:	af00      	add	r7, sp, #0
 80034f2:	2300      	movs	r3, #0
 80034f4:	617b      	str	r3, [r7, #20]
 80034f6:	4b4f      	ldr	r3, [pc, #316]	@ (8003634 <xTaskIncrementTick+0x148>)
 80034f8:	681b      	ldr	r3, [r3, #0]
 80034fa:	2b00      	cmp	r3, #0
 80034fc:	f040 8090 	bne.w	8003620 <xTaskIncrementTick+0x134>
 8003500:	4b4d      	ldr	r3, [pc, #308]	@ (8003638 <xTaskIncrementTick+0x14c>)
 8003502:	681b      	ldr	r3, [r3, #0]
 8003504:	3301      	adds	r3, #1
 8003506:	613b      	str	r3, [r7, #16]
 8003508:	4a4b      	ldr	r2, [pc, #300]	@ (8003638 <xTaskIncrementTick+0x14c>)
 800350a:	693b      	ldr	r3, [r7, #16]
 800350c:	6013      	str	r3, [r2, #0]
 800350e:	693b      	ldr	r3, [r7, #16]
 8003510:	2b00      	cmp	r3, #0
 8003512:	d121      	bne.n	8003558 <xTaskIncrementTick+0x6c>
 8003514:	4b49      	ldr	r3, [pc, #292]	@ (800363c <xTaskIncrementTick+0x150>)
 8003516:	681b      	ldr	r3, [r3, #0]
 8003518:	681b      	ldr	r3, [r3, #0]
 800351a:	2b00      	cmp	r3, #0
 800351c:	d00b      	beq.n	8003536 <xTaskIncrementTick+0x4a>
 800351e:	f04f 0350 	mov.w	r3, #80	@ 0x50
 8003522:	f383 8811 	msr	BASEPRI, r3
 8003526:	f3bf 8f6f 	isb	sy
 800352a:	f3bf 8f4f 	dsb	sy
 800352e:	603b      	str	r3, [r7, #0]
 8003530:	bf00      	nop
 8003532:	bf00      	nop
 8003534:	e7fd      	b.n	8003532 <xTaskIncrementTick+0x46>
 8003536:	4b41      	ldr	r3, [pc, #260]	@ (800363c <xTaskIncrementTick+0x150>)
 8003538:	681b      	ldr	r3, [r3, #0]
 800353a:	60fb      	str	r3, [r7, #12]
 800353c:	4b40      	ldr	r3, [pc, #256]	@ (8003640 <xTaskIncrementTick+0x154>)
 800353e:	681b      	ldr	r3, [r3, #0]
 8003540:	4a3e      	ldr	r2, [pc, #248]	@ (800363c <xTaskIncrementTick+0x150>)
 8003542:	6013      	str	r3, [r2, #0]
 8003544:	4a3e      	ldr	r2, [pc, #248]	@ (8003640 <xTaskIncrementTick+0x154>)
 8003546:	68fb      	ldr	r3, [r7, #12]
 8003548:	6013      	str	r3, [r2, #0]
 800354a:	4b3e      	ldr	r3, [pc, #248]	@ (8003644 <xTaskIncrementTick+0x158>)
 800354c:	681b      	ldr	r3, [r3, #0]
 800354e:	3301      	adds	r3, #1
 8003550:	4a3c      	ldr	r2, [pc, #240]	@ (8003644 <xTaskIncrementTick+0x158>)
 8003552:	6013      	str	r3, [r2, #0]
 8003554:	f000 fad4 	bl	8003b00 <prvResetNextTaskUnblockTime>
 8003558:	4b3b      	ldr	r3, [pc, #236]	@ (8003648 <xTaskIncrementTick+0x15c>)
 800355a:	681b      	ldr	r3, [r3, #0]
 800355c:	693a      	ldr	r2, [r7, #16]
 800355e:	429a      	cmp	r2, r3
 8003560:	d349      	bcc.n	80035f6 <xTaskIncrementTick+0x10a>
 8003562:	4b36      	ldr	r3, [pc, #216]	@ (800363c <xTaskIncrementTick+0x150>)
 8003564:	681b      	ldr	r3, [r3, #0]
 8003566:	681b      	ldr	r3, [r3, #0]
 8003568:	2b00      	cmp	r3, #0
 800356a:	d104      	bne.n	8003576 <xTaskIncrementTick+0x8a>
 800356c:	4b36      	ldr	r3, [pc, #216]	@ (8003648 <xTaskIncrementTick+0x15c>)
 800356e:	f04f 32ff 	mov.w	r2, #4294967295
 8003572:	601a      	str	r2, [r3, #0]
 8003574:	e03f      	b.n	80035f6 <xTaskIncrementTick+0x10a>
 8003576:	4b31      	ldr	r3, [pc, #196]	@ (800363c <xTaskIncrementTick+0x150>)
 8003578:	681b      	ldr	r3, [r3, #0]
 800357a:	68db      	ldr	r3, [r3, #12]
 800357c:	68db      	ldr	r3, [r3, #12]
 800357e:	60bb      	str	r3, [r7, #8]
 8003580:	68bb      	ldr	r3, [r7, #8]
 8003582:	685b      	ldr	r3, [r3, #4]
 8003584:	607b      	str	r3, [r7, #4]
 8003586:	693a      	ldr	r2, [r7, #16]
 8003588:	687b      	ldr	r3, [r7, #4]
 800358a:	429a      	cmp	r2, r3
 800358c:	d203      	bcs.n	8003596 <xTaskIncrementTick+0xaa>
 800358e:	4a2e      	ldr	r2, [pc, #184]	@ (8003648 <xTaskIncrementTick+0x15c>)
 8003590:	687b      	ldr	r3, [r7, #4]
 8003592:	6013      	str	r3, [r2, #0]
 8003594:	e02f      	b.n	80035f6 <xTaskIncrementTick+0x10a>
 8003596:	68bb      	ldr	r3, [r7, #8]
 8003598:	3304      	adds	r3, #4
 800359a:	4618      	mov	r0, r3
 800359c:	f7fe ffb8 	bl	8002510 <uxListRemove>
 80035a0:	68bb      	ldr	r3, [r7, #8]
 80035a2:	6a9b      	ldr	r3, [r3, #40]	@ 0x28
 80035a4:	2b00      	cmp	r3, #0
 80035a6:	d004      	beq.n	80035b2 <xTaskIncrementTick+0xc6>
 80035a8:	68bb      	ldr	r3, [r7, #8]
 80035aa:	3318      	adds	r3, #24
 80035ac:	4618      	mov	r0, r3
 80035ae:	f7fe ffaf 	bl	8002510 <uxListRemove>
 80035b2:	68bb      	ldr	r3, [r7, #8]
 80035b4:	6ada      	ldr	r2, [r3, #44]	@ 0x2c
 80035b6:	4b25      	ldr	r3, [pc, #148]	@ (800364c <xTaskIncrementTick+0x160>)
 80035b8:	681b      	ldr	r3, [r3, #0]
 80035ba:	429a      	cmp	r2, r3
 80035bc:	d903      	bls.n	80035c6 <xTaskIncrementTick+0xda>
 80035be:	68bb      	ldr	r3, [r7, #8]
 80035c0:	6adb      	ldr	r3, [r3, #44]	@ 0x2c
 80035c2:	4a22      	ldr	r2, [pc, #136]	@ (800364c <xTaskIncrementTick+0x160>)
 80035c4:	6013      	str	r3, [r2, #0]
 80035c6:	68bb      	ldr	r3, [r7, #8]
 80035c8:	6ada      	ldr	r2, [r3, #44]	@ 0x2c
 80035ca:	4613      	mov	r3, r2
 80035cc:	009b      	lsls	r3, r3, #2
 80035ce:	4413      	add	r3, r2
 80035d0:	009b      	lsls	r3, r3, #2
 80035d2:	4a1f      	ldr	r2, [pc, #124]	@ (8003650 <xTaskIncrementTick+0x164>)
 80035d4:	441a      	add	r2, r3
 80035d6:	68bb      	ldr	r3, [r7, #8]
 80035d8:	3304      	adds	r3, #4
 80035da:	4619      	mov	r1, r3
 80035dc:	4610      	mov	r0, r2
 80035de:	f7fe ff3a 	bl	8002456 <vListInsertEnd>
 80035e2:	68bb      	ldr	r3, [r7, #8]
 80035e4:	6ada      	ldr	r2, [r3, #44]	@ 0x2c
 80035e6:	4b1b      	ldr	r3, [pc, #108]	@ (8003654 <xTaskIncrementTick+0x168>)
 80035e8:	681b      	ldr	r3, [r3, #0]
 80035ea:	6adb      	ldr	r3, [r3, #44]	@ 0x2c
 80035ec:	429a      	cmp	r2, r3
 80035ee:	d3b8      	bcc.n	8003562 <xTaskIncrementTick+0x76>
 80035f0:	2301      	movs	r3, #1
 80035f2:	617b      	str	r3, [r7, #20]
 80035f4:	e7b5      	b.n	8003562 <xTaskIncrementTick+0x76>
 80035f6:	4b17      	ldr	r3, [pc, #92]	@ (8003654 <xTaskIncrementTick+0x168>)
 80035f8:	681b      	ldr	r3, [r3, #0]
 80035fa:	6ada      	ldr	r2, [r3, #44]	@ 0x2c
 80035fc:	4914      	ldr	r1, [pc, #80]	@ (8003650 <xTaskIncrementTick+0x164>)
 80035fe:	4613      	mov	r3, r2
 8003600:	009b      	lsls	r3, r3, #2
 8003602:	4413      	add	r3, r2
 8003604:	009b      	lsls	r3, r3, #2
 8003606:	440b      	add	r3, r1
 8003608:	681b      	ldr	r3, [r3, #0]
 800360a:	2b01      	cmp	r3, #1
 800360c:	d901      	bls.n	8003612 <xTaskIncrementTick+0x126>
 800360e:	2301      	movs	r3, #1
 8003610:	617b      	str	r3, [r7, #20]
 8003612:	4b11      	ldr	r3, [pc, #68]	@ (8003658 <xTaskIncrementTick+0x16c>)
 8003614:	681b      	ldr	r3, [r3, #0]
 8003616:	2b00      	cmp	r3, #0
 8003618:	d007      	beq.n	800362a <xTaskIncrementTick+0x13e>
 800361a:	2301      	movs	r3, #1
 800361c:	617b      	str	r3, [r7, #20]
 800361e:	e004      	b.n	800362a <xTaskIncrementTick+0x13e>
 8003620:	4b0e      	ldr	r3, [pc, #56]	@ (800365c <xTaskIncrementTick+0x170>)
 8003622:	681b      	ldr	r3, [r3, #0]
 8003624:	3301      	adds	r3, #1
 8003626:	4a0d      	ldr	r2, [pc, #52]	@ (800365c <xTaskIncrementTick+0x170>)
 8003628:	6013      	str	r3, [r2, #0]
 800362a:	697b      	ldr	r3, [r7, #20]
 800362c:	4618      	mov	r0, r3
 800362e:	3718      	adds	r7, #24
 8003630:	46bd      	mov	sp, r7
 8003632:	bd80      	pop	{r7, pc}
 8003634:	20000cb8 	.word	0x20000cb8
 8003638:	20000c94 	.word	0x20000c94
 800363c:	20000c48 	.word	0x20000c48
 8003640:	20000c4c 	.word	0x20000c4c
 8003644:	20000ca8 	.word	0x20000ca8
 8003648:	20000cb0 	.word	0x20000cb0
 800364c:	20000c98 	.word	0x20000c98
 8003650:	200007c0 	.word	0x200007c0
 8003654:	200007bc 	.word	0x200007bc
 8003658:	20000ca4 	.word	0x20000ca4
 800365c:	20000ca0 	.word	0x20000ca0

08003660 <vTaskSwitchContext>:
 8003660:	b480      	push	{r7}
 8003662:	b085      	sub	sp, #20
 8003664:	af00      	add	r7, sp, #0
 8003666:	4b28      	ldr	r3, [pc, #160]	@ (8003708 <vTaskSwitchContext+0xa8>)
 8003668:	681b      	ldr	r3, [r3, #0]
 800366a:	2b00      	cmp	r3, #0
 800366c:	d003      	beq.n	8003676 <vTaskSwitchContext+0x16>
 800366e:	4b27      	ldr	r3, [pc, #156]	@ (800370c <vTaskSwitchContext+0xac>)
 8003670:	2201      	movs	r2, #1
 8003672:	601a      	str	r2, [r3, #0]
 8003674:	e042      	b.n	80036fc <vTaskSwitchContext+0x9c>
 8003676:	4b25      	ldr	r3, [pc, #148]	@ (800370c <vTaskSwitchContext+0xac>)
 8003678:	2200      	movs	r2, #0
 800367a:	601a      	str	r2, [r3, #0]
 800367c:	4b24      	ldr	r3, [pc, #144]	@ (8003710 <vTaskSwitchContext+0xb0>)
 800367e:	681b      	ldr	r3, [r3, #0]
 8003680:	60fb      	str	r3, [r7, #12]
 8003682:	e011      	b.n	80036a8 <vTaskSwitchContext+0x48>
 8003684:	68fb      	ldr	r3, [r7, #12]
 8003686:	2b00      	cmp	r3, #0
 8003688:	d10b      	bne.n	80036a2 <vTaskSwitchContext+0x42>
 800368a:	f04f 0350 	mov.w	r3, #80	@ 0x50
 800368e:	f383 8811 	msr	BASEPRI, r3
 8003692:	f3bf 8f6f 	isb	sy
 8003696:	f3bf 8f4f 	dsb	sy
 800369a:	607b      	str	r3, [r7, #4]
 800369c:	bf00      	nop
 800369e:	bf00      	nop
 80036a0:	e7fd      	b.n	800369e <vTaskSwitchContext+0x3e>
 80036a2:	68fb      	ldr	r3, [r7, #12]
 80036a4:	3b01      	subs	r3, #1
 80036a6:	60fb      	str	r3, [r7, #12]
 80036a8:	491a      	ldr	r1, [pc, #104]	@ (8003714 <vTaskSwitchContext+0xb4>)
 80036aa:	68fa      	ldr	r2, [r7, #12]
 80036ac:	4613      	mov	r3, r2
 80036ae:	009b      	lsls	r3, r3, #2
 80036b0:	4413      	add	r3, r2
 80036b2:	009b      	lsls	r3, r3, #2
 80036b4:	440b      	add	r3, r1
 80036b6:	681b      	ldr	r3, [r3, #0]
 80036b8:	2b00      	cmp	r3, #0
 80036ba:	d0e3      	beq.n	8003684 <vTaskSwitchContext+0x24>
 80036bc:	68fa      	ldr	r2, [r7, #12]
 80036be:	4613      	mov	r3, r2
 80036c0:	009b      	lsls	r3, r3, #2
 80036c2:	4413      	add	r3, r2
 80036c4:	009b      	lsls	r3, r3, #2
 80036c6:	4a13      	ldr	r2, [pc, #76]	@ (8003714 <vTaskSwitchContext+0xb4>)
 80036c8:	4413      	add	r3, r2
 80036ca:	60bb      	str	r3, [r7, #8]
 80036cc:	68bb      	ldr	r3, [r7, #8]
 80036ce:	685b      	ldr	r3, [r3, #4]
 80036d0:	685a      	ldr	r2, [r3, #4]
 80036d2:	68bb      	ldr	r3, [r7, #8]
 80036d4:	605a      	str	r2, [r3, #4]
 80036d6:	68bb      	ldr	r3, [r7, #8]
 80036d8:	685a      	ldr	r2, [r3, #4]
 80036da:	68bb      	ldr	r3, [r7, #8]
 80036dc:	3308      	adds	r3, #8
 80036de:	429a      	cmp	r2, r3
 80036e0:	d104      	bne.n	80036ec <vTaskSwitchContext+0x8c>
 80036e2:	68bb      	ldr	r3, [r7, #8]
 80036e4:	685b      	ldr	r3, [r3, #4]
 80036e6:	685a      	ldr	r2, [r3, #4]
 80036e8:	68bb      	ldr	r3, [r7, #8]
 80036ea:	605a      	str	r2, [r3, #4]
 80036ec:	68bb      	ldr	r3, [r7, #8]
 80036ee:	685b      	ldr	r3, [r3, #4]
 80036f0:	68db      	ldr	r3, [r3, #12]
 80036f2:	4a09      	ldr	r2, [pc, #36]	@ (8003718 <vTaskSwitchContext+0xb8>)
 80036f4:	6013      	str	r3, [r2, #0]
 80036f6:	4a06      	ldr	r2, [pc, #24]	@ (8003710 <vTaskSwitchContext+0xb0>)
 80036f8:	68fb      	ldr	r3, [r7, #12]
 80036fa:	6013      	str	r3, [r2, #0]
 80036fc:	bf00      	nop
 80036fe:	3714      	adds	r7, #20
 8003700:	46bd      	mov	sp, r7
 8003702:	f85d 7b04 	ldr.w	r7, [sp], #4
 8003706:	4770      	bx	lr
 8003708:	20000cb8 	.word	0x20000cb8
 800370c:	20000ca4 	.word	0x20000ca4
 8003710:	20000c98 	.word	0x20000c98
 8003714:	200007c0 	.word	0x200007c0
 8003718:	200007bc 	.word	0x200007bc

0800371c <vTaskPlaceOnEventList>:
 800371c:	b580      	push	{r7, lr}
 800371e:	b084      	sub	sp, #16
 8003720:	af00      	add	r7, sp, #0
 8003722:	6078      	str	r0, [r7, #4]
 8003724:	6039      	str	r1, [r7, #0]
 8003726:	687b      	ldr	r3, [r7, #4]
 8003728:	2b00      	cmp	r3, #0
 800372a:	d10b      	bne.n	8003744 <vTaskPlaceOnEventList+0x28>
 800372c:	f04f 0350 	mov.w	r3, #80	@ 0x50
 8003730:	f383 8811 	msr	BASEPRI, r3
 8003734:	f3bf 8f6f 	isb	sy
 8003738:	f3bf 8f4f 	dsb	sy
 800373c:	60fb      	str	r3, [r7, #12]
 800373e:	bf00      	nop
 8003740:	bf00      	nop
 8003742:	e7fd      	b.n	8003740 <vTaskPlaceOnEventList+0x24>
 8003744:	4b07      	ldr	r3, [pc, #28]	@ (8003764 <vTaskPlaceOnEventList+0x48>)
 8003746:	681b      	ldr	r3, [r3, #0]
 8003748:	3318      	adds	r3, #24
 800374a:	4619      	mov	r1, r3
 800374c:	6878      	ldr	r0, [r7, #4]
 800374e:	f7fe fea6 	bl	800249e <vListInsert>
 8003752:	2101      	movs	r1, #1
 8003754:	6838      	ldr	r0, [r7, #0]
 8003756:	f000 fa81 	bl	8003c5c <prvAddCurrentTaskToDelayedList>
 800375a:	bf00      	nop
 800375c:	3710      	adds	r7, #16
 800375e:	46bd      	mov	sp, r7
 8003760:	bd80      	pop	{r7, pc}
 8003762:	bf00      	nop
 8003764:	200007bc 	.word	0x200007bc

08003768 <vTaskPlaceOnEventListRestricted>:
 8003768:	b580      	push	{r7, lr}
 800376a:	b086      	sub	sp, #24
 800376c:	af00      	add	r7, sp, #0
 800376e:	60f8      	str	r0, [r7, #12]
 8003770:	60b9      	str	r1, [r7, #8]
 8003772:	607a      	str	r2, [r7, #4]
 8003774:	68fb      	ldr	r3, [r7, #12]
 8003776:	2b00      	cmp	r3, #0
 8003778:	d10b      	bne.n	8003792 <vTaskPlaceOnEventListRestricted+0x2a>
 800377a:	f04f 0350 	mov.w	r3, #80	@ 0x50
 800377e:	f383 8811 	msr	BASEPRI, r3
 8003782:	f3bf 8f6f 	isb	sy
 8003786:	f3bf 8f4f 	dsb	sy
 800378a:	617b      	str	r3, [r7, #20]
 800378c:	bf00      	nop
 800378e:	bf00      	nop
 8003790:	e7fd      	b.n	800378e <vTaskPlaceOnEventListRestricted+0x26>
 8003792:	4b0a      	ldr	r3, [pc, #40]	@ (80037bc <vTaskPlaceOnEventListRestricted+0x54>)
 8003794:	681b      	ldr	r3, [r3, #0]
 8003796:	3318      	adds	r3, #24
 8003798:	4619      	mov	r1, r3
 800379a:	68f8      	ldr	r0, [r7, #12]
 800379c:	f7fe fe5b 	bl	8002456 <vListInsertEnd>
 80037a0:	687b      	ldr	r3, [r7, #4]
 80037a2:	2b00      	cmp	r3, #0
 80037a4:	d002      	beq.n	80037ac <vTaskPlaceOnEventListRestricted+0x44>
 80037a6:	f04f 33ff 	mov.w	r3, #4294967295
 80037aa:	60bb      	str	r3, [r7, #8]
 80037ac:	6879      	ldr	r1, [r7, #4]
 80037ae:	68b8      	ldr	r0, [r7, #8]
 80037b0:	f000 fa54 	bl	8003c5c <prvAddCurrentTaskToDelayedList>
 80037b4:	bf00      	nop
 80037b6:	3718      	adds	r7, #24
 80037b8:	46bd      	mov	sp, r7
 80037ba:	bd80      	pop	{r7, pc}
 80037bc:	200007bc 	.word	0x200007bc

080037c0 <xTaskRemoveFromEventList>:
 80037c0:	b580      	push	{r7, lr}
 80037c2:	b086      	sub	sp, #24
 80037c4:	af00      	add	r7, sp, #0
 80037c6:	6078      	str	r0, [r7, #4]
 80037c8:	687b      	ldr	r3, [r7, #4]
 80037ca:	68db      	ldr	r3, [r3, #12]
 80037cc:	68db      	ldr	r3, [r3, #12]
 80037ce:	613b      	str	r3, [r7, #16]
 80037d0:	693b      	ldr	r3, [r7, #16]
 80037d2:	2b00      	cmp	r3, #0
 80037d4:	d10b      	bne.n	80037ee <xTaskRemoveFromEventList+0x2e>
 80037d6:	f04f 0350 	mov.w	r3, #80	@ 0x50
 80037da:	f383 8811 	msr	BASEPRI, r3
 80037de:	f3bf 8f6f 	isb	sy
 80037e2:	f3bf 8f4f 	dsb	sy
 80037e6:	60fb      	str	r3, [r7, #12]
 80037e8:	bf00      	nop
 80037ea:	bf00      	nop
 80037ec:	e7fd      	b.n	80037ea <xTaskRemoveFromEventList+0x2a>
 80037ee:	693b      	ldr	r3, [r7, #16]
 80037f0:	3318      	adds	r3, #24
 80037f2:	4618      	mov	r0, r3
 80037f4:	f7fe fe8c 	bl	8002510 <uxListRemove>
 80037f8:	4b1d      	ldr	r3, [pc, #116]	@ (8003870 <xTaskRemoveFromEventList+0xb0>)
 80037fa:	681b      	ldr	r3, [r3, #0]
 80037fc:	2b00      	cmp	r3, #0
 80037fe:	d11d      	bne.n	800383c <xTaskRemoveFromEventList+0x7c>
 8003800:	693b      	ldr	r3, [r7, #16]
 8003802:	3304      	adds	r3, #4
 8003804:	4618      	mov	r0, r3
 8003806:	f7fe fe83 	bl	8002510 <uxListRemove>
 800380a:	693b      	ldr	r3, [r7, #16]
 800380c:	6ada      	ldr	r2, [r3, #44]	@ 0x2c
 800380e:	4b19      	ldr	r3, [pc, #100]	@ (8003874 <xTaskRemoveFromEventList+0xb4>)
 8003810:	681b      	ldr	r3, [r3, #0]
 8003812:	429a      	cmp	r2, r3
 8003814:	d903      	bls.n	800381e <xTaskRemoveFromEventList+0x5e>
 8003816:	693b      	ldr	r3, [r7, #16]
 8003818:	6adb      	ldr	r3, [r3, #44]	@ 0x2c
 800381a:	4a16      	ldr	r2, [pc, #88]	@ (8003874 <xTaskRemoveFromEventList+0xb4>)
 800381c:	6013      	str	r3, [r2, #0]
 800381e:	693b      	ldr	r3, [r7, #16]
 8003820:	6ada      	ldr	r2, [r3, #44]	@ 0x2c
 8003822:	4613      	mov	r3, r2
 8003824:	009b      	lsls	r3, r3, #2
 8003826:	4413      	add	r3, r2
 8003828:	009b      	lsls	r3, r3, #2
 800382a:	4a13      	ldr	r2, [pc, #76]	@ (8003878 <xTaskRemoveFromEventList+0xb8>)
 800382c:	441a      	add	r2, r3
 800382e:	693b      	ldr	r3, [r7, #16]
 8003830:	3304      	adds	r3, #4
 8003832:	4619      	mov	r1, r3
 8003834:	4610      	mov	r0, r2
 8003836:	f7fe fe0e 	bl	8002456 <vListInsertEnd>
 800383a:	e005      	b.n	8003848 <xTaskRemoveFromEventList+0x88>
 800383c:	693b      	ldr	r3, [r7, #16]
 800383e:	3318      	adds	r3, #24
 8003840:	4619      	mov	r1, r3
 8003842:	480e      	ldr	r0, [pc, #56]	@ (800387c <xTaskRemoveFromEventList+0xbc>)
 8003844:	f7fe fe07 	bl	8002456 <vListInsertEnd>
 8003848:	693b      	ldr	r3, [r7, #16]
 800384a:	6ada      	ldr	r2, [r3, #44]	@ 0x2c
 800384c:	4b0c      	ldr	r3, [pc, #48]	@ (8003880 <xTaskRemoveFromEventList+0xc0>)
 800384e:	681b      	ldr	r3, [r3, #0]
 8003850:	6adb      	ldr	r3, [r3, #44]	@ 0x2c
 8003852:	429a      	cmp	r2, r3
 8003854:	d905      	bls.n	8003862 <xTaskRemoveFromEventList+0xa2>
 8003856:	2301      	movs	r3, #1
 8003858:	617b      	str	r3, [r7, #20]
 800385a:	4b0a      	ldr	r3, [pc, #40]	@ (8003884 <xTaskRemoveFromEventList+0xc4>)
 800385c:	2201      	movs	r2, #1
 800385e:	601a      	str	r2, [r3, #0]
 8003860:	e001      	b.n	8003866 <xTaskRemoveFromEventList+0xa6>
 8003862:	2300      	movs	r3, #0
 8003864:	617b      	str	r3, [r7, #20]
 8003866:	697b      	ldr	r3, [r7, #20]
 8003868:	4618      	mov	r0, r3
 800386a:	3718      	adds	r7, #24
 800386c:	46bd      	mov	sp, r7
 800386e:	bd80      	pop	{r7, pc}
 8003870:	20000cb8 	.word	0x20000cb8
 8003874:	20000c98 	.word	0x20000c98
 8003878:	200007c0 	.word	0x200007c0
 800387c:	20000c50 	.word	0x20000c50
 8003880:	200007bc 	.word	0x200007bc
 8003884:	20000ca4 	.word	0x20000ca4

08003888 <vTaskInternalSetTimeOutState>:
 8003888:	b480      	push	{r7}
 800388a:	b083      	sub	sp, #12
 800388c:	af00      	add	r7, sp, #0
 800388e:	6078      	str	r0, [r7, #4]
 8003890:	4b06      	ldr	r3, [pc, #24]	@ (80038ac <vTaskInternalSetTimeOutState+0x24>)
 8003892:	681a      	ldr	r2, [r3, #0]
 8003894:	687b      	ldr	r3, [r7, #4]
 8003896:	601a      	str	r2, [r3, #0]
 8003898:	4b05      	ldr	r3, [pc, #20]	@ (80038b0 <vTaskInternalSetTimeOutState+0x28>)
 800389a:	681a      	ldr	r2, [r3, #0]
 800389c:	687b      	ldr	r3, [r7, #4]
 800389e:	605a      	str	r2, [r3, #4]
 80038a0:	bf00      	nop
 80038a2:	370c      	adds	r7, #12
 80038a4:	46bd      	mov	sp, r7
 80038a6:	f85d 7b04 	ldr.w	r7, [sp], #4
 80038aa:	4770      	bx	lr
 80038ac:	20000ca8 	.word	0x20000ca8
 80038b0:	20000c94 	.word	0x20000c94

080038b4 <xTaskCheckForTimeOut>:
 80038b4:	b580      	push	{r7, lr}
 80038b6:	b088      	sub	sp, #32
 80038b8:	af00      	add	r7, sp, #0
 80038ba:	6078      	str	r0, [r7, #4]
 80038bc:	6039      	str	r1, [r7, #0]
 80038be:	687b      	ldr	r3, [r7, #4]
 80038c0:	2b00      	cmp	r3, #0
 80038c2:	d10b      	bne.n	80038dc <xTaskCheckForTimeOut+0x28>
 80038c4:	f04f 0350 	mov.w	r3, #80	@ 0x50
 80038c8:	f383 8811 	msr	BASEPRI, r3
 80038cc:	f3bf 8f6f 	isb	sy
 80038d0:	f3bf 8f4f 	dsb	sy
 80038d4:	613b      	str	r3, [r7, #16]
 80038d6:	bf00      	nop
 80038d8:	bf00      	nop
 80038da:	e7fd      	b.n	80038d8 <xTaskCheckForTimeOut+0x24>
 80038dc:	683b      	ldr	r3, [r7, #0]
 80038de:	2b00      	cmp	r3, #0
 80038e0:	d10b      	bne.n	80038fa <xTaskCheckForTimeOut+0x46>
 80038e2:	f04f 0350 	mov.w	r3, #80	@ 0x50
 80038e6:	f383 8811 	msr	BASEPRI, r3
 80038ea:	f3bf 8f6f 	isb	sy
 80038ee:	f3bf 8f4f 	dsb	sy
 80038f2:	60fb      	str	r3, [r7, #12]
 80038f4:	bf00      	nop
 80038f6:	bf00      	nop
 80038f8:	e7fd      	b.n	80038f6 <xTaskCheckForTimeOut+0x42>
 80038fa:	f000 fe8d 	bl	8004618 <vPortEnterCritical>
 80038fe:	4b1d      	ldr	r3, [pc, #116]	@ (8003974 <xTaskCheckForTimeOut+0xc0>)
 8003900:	681b      	ldr	r3, [r3, #0]
 8003902:	61bb      	str	r3, [r7, #24]
 8003904:	687b      	ldr	r3, [r7, #4]
 8003906:	685b      	ldr	r3, [r3, #4]
 8003908:	69ba      	ldr	r2, [r7, #24]
 800390a:	1ad3      	subs	r3, r2, r3
 800390c:	617b      	str	r3, [r7, #20]
 800390e:	683b      	ldr	r3, [r7, #0]
 8003910:	681b      	ldr	r3, [r3, #0]
 8003912:	f1b3 3fff 	cmp.w	r3, #4294967295
 8003916:	d102      	bne.n	800391e <xTaskCheckForTimeOut+0x6a>
 8003918:	2300      	movs	r3, #0
 800391a:	61fb      	str	r3, [r7, #28]
 800391c:	e023      	b.n	8003966 <xTaskCheckForTimeOut+0xb2>
 800391e:	687b      	ldr	r3, [r7, #4]
 8003920:	681a      	ldr	r2, [r3, #0]
 8003922:	4b15      	ldr	r3, [pc, #84]	@ (8003978 <xTaskCheckForTimeOut+0xc4>)
 8003924:	681b      	ldr	r3, [r3, #0]
 8003926:	429a      	cmp	r2, r3
 8003928:	d007      	beq.n	800393a <xTaskCheckForTimeOut+0x86>
 800392a:	687b      	ldr	r3, [r7, #4]
 800392c:	685b      	ldr	r3, [r3, #4]
 800392e:	69ba      	ldr	r2, [r7, #24]
 8003930:	429a      	cmp	r2, r3
 8003932:	d302      	bcc.n	800393a <xTaskCheckForTimeOut+0x86>
 8003934:	2301      	movs	r3, #1
 8003936:	61fb      	str	r3, [r7, #28]
 8003938:	e015      	b.n	8003966 <xTaskCheckForTimeOut+0xb2>
 800393a:	683b      	ldr	r3, [r7, #0]
 800393c:	681b      	ldr	r3, [r3, #0]
 800393e:	697a      	ldr	r2, [r7, #20]
 8003940:	429a      	cmp	r2, r3
 8003942:	d20b      	bcs.n	800395c <xTaskCheckForTimeOut+0xa8>
 8003944:	683b      	ldr	r3, [r7, #0]
 8003946:	681a      	ldr	r2, [r3, #0]
 8003948:	697b      	ldr	r3, [r7, #20]
 800394a:	1ad2      	subs	r2, r2, r3
 800394c:	683b      	ldr	r3, [r7, #0]
 800394e:	601a      	str	r2, [r3, #0]
 8003950:	6878      	ldr	r0, [r7, #4]
 8003952:	f7ff ff99 	bl	8003888 <vTaskInternalSetTimeOutState>
 8003956:	2300      	movs	r3, #0
 8003958:	61fb      	str	r3, [r7, #28]
 800395a:	e004      	b.n	8003966 <xTaskCheckForTimeOut+0xb2>
 800395c:	683b      	ldr	r3, [r7, #0]
 800395e:	2200      	movs	r2, #0
 8003960:	601a      	str	r2, [r3, #0]
 8003962:	2301      	movs	r3, #1
 8003964:	61fb      	str	r3, [r7, #28]
 8003966:	f000 fe89 	bl	800467c <vPortExitCritical>
 800396a:	69fb      	ldr	r3, [r7, #28]
 800396c:	4618      	mov	r0, r3
 800396e:	3720      	adds	r7, #32
 8003970:	46bd      	mov	sp, r7
 8003972:	bd80      	pop	{r7, pc}
 8003974:	20000c94 	.word	0x20000c94
 8003978:	20000ca8 	.word	0x20000ca8

0800397c <vTaskMissedYield>:
 800397c:	b480      	push	{r7}
 800397e:	af00      	add	r7, sp, #0
 8003980:	4b03      	ldr	r3, [pc, #12]	@ (8003990 <vTaskMissedYield+0x14>)
 8003982:	2201      	movs	r2, #1
 8003984:	601a      	str	r2, [r3, #0]
 8003986:	bf00      	nop
 8003988:	46bd      	mov	sp, r7
 800398a:	f85d 7b04 	ldr.w	r7, [sp], #4
 800398e:	4770      	bx	lr
 8003990:	20000ca4 	.word	0x20000ca4

08003994 <prvIdleTask>:
 8003994:	b580      	push	{r7, lr}
 8003996:	b082      	sub	sp, #8
 8003998:	af00      	add	r7, sp, #0
 800399a:	6078      	str	r0, [r7, #4]
 800399c:	f000 f852 	bl	8003a44 <prvCheckTasksWaitingTermination>
 80039a0:	4b06      	ldr	r3, [pc, #24]	@ (80039bc <prvIdleTask+0x28>)
 80039a2:	681b      	ldr	r3, [r3, #0]
 80039a4:	2b01      	cmp	r3, #1
 80039a6:	d9f9      	bls.n	800399c <prvIdleTask+0x8>
 80039a8:	4b05      	ldr	r3, [pc, #20]	@ (80039c0 <prvIdleTask+0x2c>)
 80039aa:	f04f 5280 	mov.w	r2, #268435456	@ 0x10000000
 80039ae:	601a      	str	r2, [r3, #0]
 80039b0:	f3bf 8f4f 	dsb	sy
 80039b4:	f3bf 8f6f 	isb	sy
 80039b8:	e7f0      	b.n	800399c <prvIdleTask+0x8>
 80039ba:	bf00      	nop
 80039bc:	200007c0 	.word	0x200007c0
 80039c0:	e000ed04 	.word	0xe000ed04

080039c4 <prvInitialiseTaskLists>:
 80039c4:	b580      	push	{r7, lr}
 80039c6:	b082      	sub	sp, #8
 80039c8:	af00      	add	r7, sp, #0
 80039ca:	2300      	movs	r3, #0
 80039cc:	607b      	str	r3, [r7, #4]
 80039ce:	e00c      	b.n	80039ea <prvInitialiseTaskLists+0x26>
 80039d0:	687a      	ldr	r2, [r7, #4]
 80039d2:	4613      	mov	r3, r2
 80039d4:	009b      	lsls	r3, r3, #2
 80039d6:	4413      	add	r3, r2
 80039d8:	009b      	lsls	r3, r3, #2
 80039da:	4a12      	ldr	r2, [pc, #72]	@ (8003a24 <prvInitialiseTaskLists+0x60>)
 80039dc:	4413      	add	r3, r2
 80039de:	4618      	mov	r0, r3
 80039e0:	f7fe fd0c 	bl	80023fc <vListInitialise>
 80039e4:	687b      	ldr	r3, [r7, #4]
 80039e6:	3301      	adds	r3, #1
 80039e8:	607b      	str	r3, [r7, #4]
 80039ea:	687b      	ldr	r3, [r7, #4]
 80039ec:	2b37      	cmp	r3, #55	@ 0x37
 80039ee:	d9ef      	bls.n	80039d0 <prvInitialiseTaskLists+0xc>
 80039f0:	480d      	ldr	r0, [pc, #52]	@ (8003a28 <prvInitialiseTaskLists+0x64>)
 80039f2:	f7fe fd03 	bl	80023fc <vListInitialise>
 80039f6:	480d      	ldr	r0, [pc, #52]	@ (8003a2c <prvInitialiseTaskLists+0x68>)
 80039f8:	f7fe fd00 	bl	80023fc <vListInitialise>
 80039fc:	480c      	ldr	r0, [pc, #48]	@ (8003a30 <prvInitialiseTaskLists+0x6c>)
 80039fe:	f7fe fcfd 	bl	80023fc <vListInitialise>
 8003a02:	480c      	ldr	r0, [pc, #48]	@ (8003a34 <prvInitialiseTaskLists+0x70>)
 8003a04:	f7fe fcfa 	bl	80023fc <vListInitialise>
 8003a08:	480b      	ldr	r0, [pc, #44]	@ (8003a38 <prvInitialiseTaskLists+0x74>)
 8003a0a:	f7fe fcf7 	bl	80023fc <vListInitialise>
 8003a0e:	4b0b      	ldr	r3, [pc, #44]	@ (8003a3c <prvInitialiseTaskLists+0x78>)
 8003a10:	4a05      	ldr	r2, [pc, #20]	@ (8003a28 <prvInitialiseTaskLists+0x64>)
 8003a12:	601a      	str	r2, [r3, #0]
 8003a14:	4b0a      	ldr	r3, [pc, #40]	@ (8003a40 <prvInitialiseTaskLists+0x7c>)
 8003a16:	4a05      	ldr	r2, [pc, #20]	@ (8003a2c <prvInitialiseTaskLists+0x68>)
 8003a18:	601a      	str	r2, [r3, #0]
 8003a1a:	bf00      	nop
 8003a1c:	3708      	adds	r7, #8
 8003a1e:	46bd      	mov	sp, r7
 8003a20:	bd80      	pop	{r7, pc}
 8003a22:	bf00      	nop
 8003a24:	200007c0 	.word	0x200007c0
 8003a28:	20000c20 	.word	0x20000c20
 8003a2c:	20000c34 	.word	0x20000c34
 8003a30:	20000c50 	.word	0x20000c50
 8003a34:	20000c64 	.word	0x20000c64
 8003a38:	20000c7c 	.word	0x20000c7c
 8003a3c:	20000c48 	.word	0x20000c48
 8003a40:	20000c4c 	.word	0x20000c4c

08003a44 <prvCheckTasksWaitingTermination>:
 8003a44:	b580      	push	{r7, lr}
 8003a46:	b082      	sub	sp, #8
 8003a48:	af00      	add	r7, sp, #0
 8003a4a:	e019      	b.n	8003a80 <prvCheckTasksWaitingTermination+0x3c>
 8003a4c:	f000 fde4 	bl	8004618 <vPortEnterCritical>
 8003a50:	4b10      	ldr	r3, [pc, #64]	@ (8003a94 <prvCheckTasksWaitingTermination+0x50>)
 8003a52:	68db      	ldr	r3, [r3, #12]
 8003a54:	68db      	ldr	r3, [r3, #12]
 8003a56:	607b      	str	r3, [r7, #4]
 8003a58:	687b      	ldr	r3, [r7, #4]
 8003a5a:	3304      	adds	r3, #4
 8003a5c:	4618      	mov	r0, r3
 8003a5e:	f7fe fd57 	bl	8002510 <uxListRemove>
 8003a62:	4b0d      	ldr	r3, [pc, #52]	@ (8003a98 <prvCheckTasksWaitingTermination+0x54>)
 8003a64:	681b      	ldr	r3, [r3, #0]
 8003a66:	3b01      	subs	r3, #1
 8003a68:	4a0b      	ldr	r2, [pc, #44]	@ (8003a98 <prvCheckTasksWaitingTermination+0x54>)
 8003a6a:	6013      	str	r3, [r2, #0]
 8003a6c:	4b0b      	ldr	r3, [pc, #44]	@ (8003a9c <prvCheckTasksWaitingTermination+0x58>)
 8003a6e:	681b      	ldr	r3, [r3, #0]
 8003a70:	3b01      	subs	r3, #1
 8003a72:	4a0a      	ldr	r2, [pc, #40]	@ (8003a9c <prvCheckTasksWaitingTermination+0x58>)
 8003a74:	6013      	str	r3, [r2, #0]
 8003a76:	f000 fe01 	bl	800467c <vPortExitCritical>
 8003a7a:	6878      	ldr	r0, [r7, #4]
 8003a7c:	f000 f810 	bl	8003aa0 <prvDeleteTCB>
 8003a80:	4b06      	ldr	r3, [pc, #24]	@ (8003a9c <prvCheckTasksWaitingTermination+0x58>)
 8003a82:	681b      	ldr	r3, [r3, #0]
 8003a84:	2b00      	cmp	r3, #0
 8003a86:	d1e1      	bne.n	8003a4c <prvCheckTasksWaitingTermination+0x8>
 8003a88:	bf00      	nop
 8003a8a:	bf00      	nop
 8003a8c:	3708      	adds	r7, #8
 8003a8e:	46bd      	mov	sp, r7
 8003a90:	bd80      	pop	{r7, pc}
 8003a92:	bf00      	nop
 8003a94:	20000c64 	.word	0x20000c64
 8003a98:	20000c90 	.word	0x20000c90
 8003a9c:	20000c78 	.word	0x20000c78

08003aa0 <prvDeleteTCB>:
 8003aa0:	b580      	push	{r7, lr}
 8003aa2:	b084      	sub	sp, #16
 8003aa4:	af00      	add	r7, sp, #0
 8003aa6:	6078      	str	r0, [r7, #4]
 8003aa8:	687b      	ldr	r3, [r7, #4]
 8003aaa:	f893 3059 	ldrb.w	r3, [r3, #89]	@ 0x59
 8003aae:	2b00      	cmp	r3, #0
 8003ab0:	d108      	bne.n	8003ac4 <prvDeleteTCB+0x24>
 8003ab2:	687b      	ldr	r3, [r7, #4]
 8003ab4:	6b1b      	ldr	r3, [r3, #48]	@ 0x30
 8003ab6:	4618      	mov	r0, r3
 8003ab8:	f000 ff9e 	bl	80049f8 <vPortFree>
 8003abc:	6878      	ldr	r0, [r7, #4]
 8003abe:	f000 ff9b 	bl	80049f8 <vPortFree>
 8003ac2:	e019      	b.n	8003af8 <prvDeleteTCB+0x58>
 8003ac4:	687b      	ldr	r3, [r7, #4]
 8003ac6:	f893 3059 	ldrb.w	r3, [r3, #89]	@ 0x59
 8003aca:	2b01      	cmp	r3, #1
 8003acc:	d103      	bne.n	8003ad6 <prvDeleteTCB+0x36>
 8003ace:	6878      	ldr	r0, [r7, #4]
 8003ad0:	f000 ff92 	bl	80049f8 <vPortFree>
 8003ad4:	e010      	b.n	8003af8 <prvDeleteTCB+0x58>
 8003ad6:	687b      	ldr	r3, [r7, #4]
 8003ad8:	f893 3059 	ldrb.w	r3, [r3, #89]	@ 0x59
 8003adc:	2b02      	cmp	r3, #2
 8003ade:	d00b      	beq.n	8003af8 <prvDeleteTCB+0x58>
 8003ae0:	f04f 0350 	mov.w	r3, #80	@ 0x50
 8003ae4:	f383 8811 	msr	BASEPRI, r3
 8003ae8:	f3bf 8f6f 	isb	sy
 8003aec:	f3bf 8f4f 	dsb	sy
 8003af0:	60fb      	str	r3, [r7, #12]
 8003af2:	bf00      	nop
 8003af4:	bf00      	nop
 8003af6:	e7fd      	b.n	8003af4 <prvDeleteTCB+0x54>
 8003af8:	bf00      	nop
 8003afa:	3710      	adds	r7, #16
 8003afc:	46bd      	mov	sp, r7
 8003afe:	bd80      	pop	{r7, pc}

08003b00 <prvResetNextTaskUnblockTime>:
 8003b00:	b480      	push	{r7}
 8003b02:	b083      	sub	sp, #12
 8003b04:	af00      	add	r7, sp, #0
 8003b06:	4b0c      	ldr	r3, [pc, #48]	@ (8003b38 <prvResetNextTaskUnblockTime+0x38>)
 8003b08:	681b      	ldr	r3, [r3, #0]
 8003b0a:	681b      	ldr	r3, [r3, #0]
 8003b0c:	2b00      	cmp	r3, #0
 8003b0e:	d104      	bne.n	8003b1a <prvResetNextTaskUnblockTime+0x1a>
 8003b10:	4b0a      	ldr	r3, [pc, #40]	@ (8003b3c <prvResetNextTaskUnblockTime+0x3c>)
 8003b12:	f04f 32ff 	mov.w	r2, #4294967295
 8003b16:	601a      	str	r2, [r3, #0]
 8003b18:	e008      	b.n	8003b2c <prvResetNextTaskUnblockTime+0x2c>
 8003b1a:	4b07      	ldr	r3, [pc, #28]	@ (8003b38 <prvResetNextTaskUnblockTime+0x38>)
 8003b1c:	681b      	ldr	r3, [r3, #0]
 8003b1e:	68db      	ldr	r3, [r3, #12]
 8003b20:	68db      	ldr	r3, [r3, #12]
 8003b22:	607b      	str	r3, [r7, #4]
 8003b24:	687b      	ldr	r3, [r7, #4]
 8003b26:	685b      	ldr	r3, [r3, #4]
 8003b28:	4a04      	ldr	r2, [pc, #16]	@ (8003b3c <prvResetNextTaskUnblockTime+0x3c>)
 8003b2a:	6013      	str	r3, [r2, #0]
 8003b2c:	bf00      	nop
 8003b2e:	370c      	adds	r7, #12
 8003b30:	46bd      	mov	sp, r7
 8003b32:	f85d 7b04 	ldr.w	r7, [sp], #4
 8003b36:	4770      	bx	lr
 8003b38:	20000c48 	.word	0x20000c48
 8003b3c:	20000cb0 	.word	0x20000cb0

08003b40 <xTaskGetSchedulerState>:
 8003b40:	b480      	push	{r7}
 8003b42:	b083      	sub	sp, #12
 8003b44:	af00      	add	r7, sp, #0
 8003b46:	4b0b      	ldr	r3, [pc, #44]	@ (8003b74 <xTaskGetSchedulerState+0x34>)
 8003b48:	681b      	ldr	r3, [r3, #0]
 8003b4a:	2b00      	cmp	r3, #0
 8003b4c:	d102      	bne.n	8003b54 <xTaskGetSchedulerState+0x14>
 8003b4e:	2301      	movs	r3, #1
 8003b50:	607b      	str	r3, [r7, #4]
 8003b52:	e008      	b.n	8003b66 <xTaskGetSchedulerState+0x26>
 8003b54:	4b08      	ldr	r3, [pc, #32]	@ (8003b78 <xTaskGetSchedulerState+0x38>)
 8003b56:	681b      	ldr	r3, [r3, #0]
 8003b58:	2b00      	cmp	r3, #0
 8003b5a:	d102      	bne.n	8003b62 <xTaskGetSchedulerState+0x22>
 8003b5c:	2302      	movs	r3, #2
 8003b5e:	607b      	str	r3, [r7, #4]
 8003b60:	e001      	b.n	8003b66 <xTaskGetSchedulerState+0x26>
 8003b62:	2300      	movs	r3, #0
 8003b64:	607b      	str	r3, [r7, #4]
 8003b66:	687b      	ldr	r3, [r7, #4]
 8003b68:	4618      	mov	r0, r3
 8003b6a:	370c      	adds	r7, #12
 8003b6c:	46bd      	mov	sp, r7
 8003b6e:	f85d 7b04 	ldr.w	r7, [sp], #4
 8003b72:	4770      	bx	lr
 8003b74:	20000c9c 	.word	0x20000c9c
 8003b78:	20000cb8 	.word	0x20000cb8

08003b7c <xTaskPriorityDisinherit>:
 8003b7c:	b580      	push	{r7, lr}
 8003b7e:	b086      	sub	sp, #24
 8003b80:	af00      	add	r7, sp, #0
 8003b82:	6078      	str	r0, [r7, #4]
 8003b84:	687b      	ldr	r3, [r7, #4]
 8003b86:	613b      	str	r3, [r7, #16]
 8003b88:	2300      	movs	r3, #0
 8003b8a:	617b      	str	r3, [r7, #20]
 8003b8c:	687b      	ldr	r3, [r7, #4]
 8003b8e:	2b00      	cmp	r3, #0
 8003b90:	d058      	beq.n	8003c44 <xTaskPriorityDisinherit+0xc8>
 8003b92:	4b2f      	ldr	r3, [pc, #188]	@ (8003c50 <xTaskPriorityDisinherit+0xd4>)
 8003b94:	681b      	ldr	r3, [r3, #0]
 8003b96:	693a      	ldr	r2, [r7, #16]
 8003b98:	429a      	cmp	r2, r3
 8003b9a:	d00b      	beq.n	8003bb4 <xTaskPriorityDisinherit+0x38>
 8003b9c:	f04f 0350 	mov.w	r3, #80	@ 0x50
 8003ba0:	f383 8811 	msr	BASEPRI, r3
 8003ba4:	f3bf 8f6f 	isb	sy
 8003ba8:	f3bf 8f4f 	dsb	sy
 8003bac:	60fb      	str	r3, [r7, #12]
 8003bae:	bf00      	nop
 8003bb0:	bf00      	nop
 8003bb2:	e7fd      	b.n	8003bb0 <xTaskPriorityDisinherit+0x34>
 8003bb4:	693b      	ldr	r3, [r7, #16]
 8003bb6:	6d1b      	ldr	r3, [r3, #80]	@ 0x50
 8003bb8:	2b00      	cmp	r3, #0
 8003bba:	d10b      	bne.n	8003bd4 <xTaskPriorityDisinherit+0x58>
 8003bbc:	f04f 0350 	mov.w	r3, #80	@ 0x50
 8003bc0:	f383 8811 	msr	BASEPRI, r3
 8003bc4:	f3bf 8f6f 	isb	sy
 8003bc8:	f3bf 8f4f 	dsb	sy
 8003bcc:	60bb      	str	r3, [r7, #8]
 8003bce:	bf00      	nop
 8003bd0:	bf00      	nop
 8003bd2:	e7fd      	b.n	8003bd0 <xTaskPriorityDisinherit+0x54>
 8003bd4:	693b      	ldr	r3, [r7, #16]
 8003bd6:	6d1b      	ldr	r3, [r3, #80]	@ 0x50
 8003bd8:	1e5a      	subs	r2, r3, #1
 8003bda:	693b      	ldr	r3, [r7, #16]
 8003bdc:	651a      	str	r2, [r3, #80]	@ 0x50
 8003bde:	693b      	ldr	r3, [r7, #16]
 8003be0:	6ada      	ldr	r2, [r3, #44]	@ 0x2c
 8003be2:	693b      	ldr	r3, [r7, #16]
 8003be4:	6cdb      	ldr	r3, [r3, #76]	@ 0x4c
 8003be6:	429a      	cmp	r2, r3
 8003be8:	d02c      	beq.n	8003c44 <xTaskPriorityDisinherit+0xc8>
 8003bea:	693b      	ldr	r3, [r7, #16]
 8003bec:	6d1b      	ldr	r3, [r3, #80]	@ 0x50
 8003bee:	2b00      	cmp	r3, #0
 8003bf0:	d128      	bne.n	8003c44 <xTaskPriorityDisinherit+0xc8>
 8003bf2:	693b      	ldr	r3, [r7, #16]
 8003bf4:	3304      	adds	r3, #4
 8003bf6:	4618      	mov	r0, r3
 8003bf8:	f7fe fc8a 	bl	8002510 <uxListRemove>
 8003bfc:	693b      	ldr	r3, [r7, #16]
 8003bfe:	6cda      	ldr	r2, [r3, #76]	@ 0x4c
 8003c00:	693b      	ldr	r3, [r7, #16]
 8003c02:	62da      	str	r2, [r3, #44]	@ 0x2c
 8003c04:	693b      	ldr	r3, [r7, #16]
 8003c06:	6adb      	ldr	r3, [r3, #44]	@ 0x2c
 8003c08:	f1c3 0238 	rsb	r2, r3, #56	@ 0x38
 8003c0c:	693b      	ldr	r3, [r7, #16]
 8003c0e:	619a      	str	r2, [r3, #24]
 8003c10:	693b      	ldr	r3, [r7, #16]
 8003c12:	6ada      	ldr	r2, [r3, #44]	@ 0x2c
 8003c14:	4b0f      	ldr	r3, [pc, #60]	@ (8003c54 <xTaskPriorityDisinherit+0xd8>)
 8003c16:	681b      	ldr	r3, [r3, #0]
 8003c18:	429a      	cmp	r2, r3
 8003c1a:	d903      	bls.n	8003c24 <xTaskPriorityDisinherit+0xa8>
 8003c1c:	693b      	ldr	r3, [r7, #16]
 8003c1e:	6adb      	ldr	r3, [r3, #44]	@ 0x2c
 8003c20:	4a0c      	ldr	r2, [pc, #48]	@ (8003c54 <xTaskPriorityDisinherit+0xd8>)
 8003c22:	6013      	str	r3, [r2, #0]
 8003c24:	693b      	ldr	r3, [r7, #16]
 8003c26:	6ada      	ldr	r2, [r3, #44]	@ 0x2c
 8003c28:	4613      	mov	r3, r2
 8003c2a:	009b      	lsls	r3, r3, #2
 8003c2c:	4413      	add	r3, r2
 8003c2e:	009b      	lsls	r3, r3, #2
 8003c30:	4a09      	ldr	r2, [pc, #36]	@ (8003c58 <xTaskPriorityDisinherit+0xdc>)
 8003c32:	441a      	add	r2, r3
 8003c34:	693b      	ldr	r3, [r7, #16]
 8003c36:	3304      	adds	r3, #4
 8003c38:	4619      	mov	r1, r3
 8003c3a:	4610      	mov	r0, r2
 8003c3c:	f7fe fc0b 	bl	8002456 <vListInsertEnd>
 8003c40:	2301      	movs	r3, #1
 8003c42:	617b      	str	r3, [r7, #20]
 8003c44:	697b      	ldr	r3, [r7, #20]
 8003c46:	4618      	mov	r0, r3
 8003c48:	3718      	adds	r7, #24
 8003c4a:	46bd      	mov	sp, r7
 8003c4c:	bd80      	pop	{r7, pc}
 8003c4e:	bf00      	nop
 8003c50:	200007bc 	.word	0x200007bc
 8003c54:	20000c98 	.word	0x20000c98
 8003c58:	200007c0 	.word	0x200007c0

08003c5c <prvAddCurrentTaskToDelayedList>:
 8003c5c:	b580      	push	{r7, lr}
 8003c5e:	b084      	sub	sp, #16
 8003c60:	af00      	add	r7, sp, #0
 8003c62:	6078      	str	r0, [r7, #4]
 8003c64:	6039      	str	r1, [r7, #0]
 8003c66:	4b21      	ldr	r3, [pc, #132]	@ (8003cec <prvAddCurrentTaskToDelayedList+0x90>)
 8003c68:	681b      	ldr	r3, [r3, #0]
 8003c6a:	60fb      	str	r3, [r7, #12]
 8003c6c:	4b20      	ldr	r3, [pc, #128]	@ (8003cf0 <prvAddCurrentTaskToDelayedList+0x94>)
 8003c6e:	681b      	ldr	r3, [r3, #0]
 8003c70:	3304      	adds	r3, #4
 8003c72:	4618      	mov	r0, r3
 8003c74:	f7fe fc4c 	bl	8002510 <uxListRemove>
 8003c78:	687b      	ldr	r3, [r7, #4]
 8003c7a:	f1b3 3fff 	cmp.w	r3, #4294967295
 8003c7e:	d10a      	bne.n	8003c96 <prvAddCurrentTaskToDelayedList+0x3a>
 8003c80:	683b      	ldr	r3, [r7, #0]
 8003c82:	2b00      	cmp	r3, #0
 8003c84:	d007      	beq.n	8003c96 <prvAddCurrentTaskToDelayedList+0x3a>
 8003c86:	4b1a      	ldr	r3, [pc, #104]	@ (8003cf0 <prvAddCurrentTaskToDelayedList+0x94>)
 8003c88:	681b      	ldr	r3, [r3, #0]
 8003c8a:	3304      	adds	r3, #4
 8003c8c:	4619      	mov	r1, r3
 8003c8e:	4819      	ldr	r0, [pc, #100]	@ (8003cf4 <prvAddCurrentTaskToDelayedList+0x98>)
 8003c90:	f7fe fbe1 	bl	8002456 <vListInsertEnd>
 8003c94:	e026      	b.n	8003ce4 <prvAddCurrentTaskToDelayedList+0x88>
 8003c96:	68fa      	ldr	r2, [r7, #12]
 8003c98:	687b      	ldr	r3, [r7, #4]
 8003c9a:	4413      	add	r3, r2
 8003c9c:	60bb      	str	r3, [r7, #8]
 8003c9e:	4b14      	ldr	r3, [pc, #80]	@ (8003cf0 <prvAddCurrentTaskToDelayedList+0x94>)
 8003ca0:	681b      	ldr	r3, [r3, #0]
 8003ca2:	68ba      	ldr	r2, [r7, #8]
 8003ca4:	605a      	str	r2, [r3, #4]
 8003ca6:	68ba      	ldr	r2, [r7, #8]
 8003ca8:	68fb      	ldr	r3, [r7, #12]
 8003caa:	429a      	cmp	r2, r3
 8003cac:	d209      	bcs.n	8003cc2 <prvAddCurrentTaskToDelayedList+0x66>
 8003cae:	4b12      	ldr	r3, [pc, #72]	@ (8003cf8 <prvAddCurrentTaskToDelayedList+0x9c>)
 8003cb0:	681a      	ldr	r2, [r3, #0]
 8003cb2:	4b0f      	ldr	r3, [pc, #60]	@ (8003cf0 <prvAddCurrentTaskToDelayedList+0x94>)
 8003cb4:	681b      	ldr	r3, [r3, #0]
 8003cb6:	3304      	adds	r3, #4
 8003cb8:	4619      	mov	r1, r3
 8003cba:	4610      	mov	r0, r2
 8003cbc:	f7fe fbef 	bl	800249e <vListInsert>
 8003cc0:	e010      	b.n	8003ce4 <prvAddCurrentTaskToDelayedList+0x88>
 8003cc2:	4b0e      	ldr	r3, [pc, #56]	@ (8003cfc <prvAddCurrentTaskToDelayedList+0xa0>)
 8003cc4:	681a      	ldr	r2, [r3, #0]
 8003cc6:	4b0a      	ldr	r3, [pc, #40]	@ (8003cf0 <prvAddCurrentTaskToDelayedList+0x94>)
 8003cc8:	681b      	ldr	r3, [r3, #0]
 8003cca:	3304      	adds	r3, #4
 8003ccc:	4619      	mov	r1, r3
 8003cce:	4610      	mov	r0, r2
 8003cd0:	f7fe fbe5 	bl	800249e <vListInsert>
 8003cd4:	4b0a      	ldr	r3, [pc, #40]	@ (8003d00 <prvAddCurrentTaskToDelayedList+0xa4>)
 8003cd6:	681b      	ldr	r3, [r3, #0]
 8003cd8:	68ba      	ldr	r2, [r7, #8]
 8003cda:	429a      	cmp	r2, r3
 8003cdc:	d202      	bcs.n	8003ce4 <prvAddCurrentTaskToDelayedList+0x88>
 8003cde:	4a08      	ldr	r2, [pc, #32]	@ (8003d00 <prvAddCurrentTaskToDelayedList+0xa4>)
 8003ce0:	68bb      	ldr	r3, [r7, #8]
 8003ce2:	6013      	str	r3, [r2, #0]
 8003ce4:	bf00      	nop
 8003ce6:	3710      	adds	r7, #16
 8003ce8:	46bd      	mov	sp, r7
 8003cea:	bd80      	pop	{r7, pc}
 8003cec:	20000c94 	.word	0x20000c94
 8003cf0:	200007bc 	.word	0x200007bc
 8003cf4:	20000c7c 	.word	0x20000c7c
 8003cf8:	20000c4c 	.word	0x20000c4c
 8003cfc:	20000c48 	.word	0x20000c48
 8003d00:	20000cb0 	.word	0x20000cb0

08003d04 <xTimerCreateTimerTask>:
 8003d04:	b580      	push	{r7, lr}
 8003d06:	b08a      	sub	sp, #40	@ 0x28
 8003d08:	af04      	add	r7, sp, #16
 8003d0a:	2300      	movs	r3, #0
 8003d0c:	617b      	str	r3, [r7, #20]
 8003d0e:	f000 fb13 	bl	8004338 <prvCheckForValidListAndQueue>
 8003d12:	4b1d      	ldr	r3, [pc, #116]	@ (8003d88 <xTimerCreateTimerTask+0x84>)
 8003d14:	681b      	ldr	r3, [r3, #0]
 8003d16:	2b00      	cmp	r3, #0
 8003d18:	d021      	beq.n	8003d5e <xTimerCreateTimerTask+0x5a>
 8003d1a:	2300      	movs	r3, #0
 8003d1c:	60fb      	str	r3, [r7, #12]
 8003d1e:	2300      	movs	r3, #0
 8003d20:	60bb      	str	r3, [r7, #8]
 8003d22:	1d3a      	adds	r2, r7, #4
 8003d24:	f107 0108 	add.w	r1, r7, #8
 8003d28:	f107 030c 	add.w	r3, r7, #12
 8003d2c:	4618      	mov	r0, r3
 8003d2e:	f7fe fb4b 	bl	80023c8 <vApplicationGetTimerTaskMemory>
 8003d32:	6879      	ldr	r1, [r7, #4]
 8003d34:	68bb      	ldr	r3, [r7, #8]
 8003d36:	68fa      	ldr	r2, [r7, #12]
 8003d38:	9202      	str	r2, [sp, #8]
 8003d3a:	9301      	str	r3, [sp, #4]
 8003d3c:	2302      	movs	r3, #2
 8003d3e:	9300      	str	r3, [sp, #0]
 8003d40:	2300      	movs	r3, #0
 8003d42:	460a      	mov	r2, r1
 8003d44:	4911      	ldr	r1, [pc, #68]	@ (8003d8c <xTimerCreateTimerTask+0x88>)
 8003d46:	4812      	ldr	r0, [pc, #72]	@ (8003d90 <xTimerCreateTimerTask+0x8c>)
 8003d48:	f7ff f906 	bl	8002f58 <xTaskCreateStatic>
 8003d4c:	4603      	mov	r3, r0
 8003d4e:	4a11      	ldr	r2, [pc, #68]	@ (8003d94 <xTimerCreateTimerTask+0x90>)
 8003d50:	6013      	str	r3, [r2, #0]
 8003d52:	4b10      	ldr	r3, [pc, #64]	@ (8003d94 <xTimerCreateTimerTask+0x90>)
 8003d54:	681b      	ldr	r3, [r3, #0]
 8003d56:	2b00      	cmp	r3, #0
 8003d58:	d001      	beq.n	8003d5e <xTimerCreateTimerTask+0x5a>
 8003d5a:	2301      	movs	r3, #1
 8003d5c:	617b      	str	r3, [r7, #20]
 8003d5e:	697b      	ldr	r3, [r7, #20]
 8003d60:	2b00      	cmp	r3, #0
 8003d62:	d10b      	bne.n	8003d7c <xTimerCreateTimerTask+0x78>
 8003d64:	f04f 0350 	mov.w	r3, #80	@ 0x50
 8003d68:	f383 8811 	msr	BASEPRI, r3
 8003d6c:	f3bf 8f6f 	isb	sy
 8003d70:	f3bf 8f4f 	dsb	sy
 8003d74:	613b      	str	r3, [r7, #16]
 8003d76:	bf00      	nop
 8003d78:	bf00      	nop
 8003d7a:	e7fd      	b.n	8003d78 <xTimerCreateTimerTask+0x74>
 8003d7c:	697b      	ldr	r3, [r7, #20]
 8003d7e:	4618      	mov	r0, r3
 8003d80:	3718      	adds	r7, #24
 8003d82:	46bd      	mov	sp, r7
 8003d84:	bd80      	pop	{r7, pc}
 8003d86:	bf00      	nop
 8003d88:	20000cec 	.word	0x20000cec
 8003d8c:	08004cd8 	.word	0x08004cd8
 8003d90:	08003ed1 	.word	0x08003ed1
 8003d94:	20000cf0 	.word	0x20000cf0

08003d98 <xTimerGenericCommand>:
 8003d98:	b580      	push	{r7, lr}
 8003d9a:	b08a      	sub	sp, #40	@ 0x28
 8003d9c:	af00      	add	r7, sp, #0
 8003d9e:	60f8      	str	r0, [r7, #12]
 8003da0:	60b9      	str	r1, [r7, #8]
 8003da2:	607a      	str	r2, [r7, #4]
 8003da4:	603b      	str	r3, [r7, #0]
 8003da6:	2300      	movs	r3, #0
 8003da8:	627b      	str	r3, [r7, #36]	@ 0x24
 8003daa:	68fb      	ldr	r3, [r7, #12]
 8003dac:	2b00      	cmp	r3, #0
 8003dae:	d10b      	bne.n	8003dc8 <xTimerGenericCommand+0x30>
 8003db0:	f04f 0350 	mov.w	r3, #80	@ 0x50
 8003db4:	f383 8811 	msr	BASEPRI, r3
 8003db8:	f3bf 8f6f 	isb	sy
 8003dbc:	f3bf 8f4f 	dsb	sy
 8003dc0:	623b      	str	r3, [r7, #32]
 8003dc2:	bf00      	nop
 8003dc4:	bf00      	nop
 8003dc6:	e7fd      	b.n	8003dc4 <xTimerGenericCommand+0x2c>
 8003dc8:	4b19      	ldr	r3, [pc, #100]	@ (8003e30 <xTimerGenericCommand+0x98>)
 8003dca:	681b      	ldr	r3, [r3, #0]
 8003dcc:	2b00      	cmp	r3, #0
 8003dce:	d02a      	beq.n	8003e26 <xTimerGenericCommand+0x8e>
 8003dd0:	68bb      	ldr	r3, [r7, #8]
 8003dd2:	613b      	str	r3, [r7, #16]
 8003dd4:	687b      	ldr	r3, [r7, #4]
 8003dd6:	617b      	str	r3, [r7, #20]
 8003dd8:	68fb      	ldr	r3, [r7, #12]
 8003dda:	61bb      	str	r3, [r7, #24]
 8003ddc:	68bb      	ldr	r3, [r7, #8]
 8003dde:	2b05      	cmp	r3, #5
 8003de0:	dc18      	bgt.n	8003e14 <xTimerGenericCommand+0x7c>
 8003de2:	f7ff fead 	bl	8003b40 <xTaskGetSchedulerState>
 8003de6:	4603      	mov	r3, r0
 8003de8:	2b02      	cmp	r3, #2
 8003dea:	d109      	bne.n	8003e00 <xTimerGenericCommand+0x68>
 8003dec:	4b10      	ldr	r3, [pc, #64]	@ (8003e30 <xTimerGenericCommand+0x98>)
 8003dee:	6818      	ldr	r0, [r3, #0]
 8003df0:	f107 0110 	add.w	r1, r7, #16
 8003df4:	2300      	movs	r3, #0
 8003df6:	6b3a      	ldr	r2, [r7, #48]	@ 0x30
 8003df8:	f7fe fcbe 	bl	8002778 <xQueueGenericSend>
 8003dfc:	6278      	str	r0, [r7, #36]	@ 0x24
 8003dfe:	e012      	b.n	8003e26 <xTimerGenericCommand+0x8e>
 8003e00:	4b0b      	ldr	r3, [pc, #44]	@ (8003e30 <xTimerGenericCommand+0x98>)
 8003e02:	6818      	ldr	r0, [r3, #0]
 8003e04:	f107 0110 	add.w	r1, r7, #16
 8003e08:	2300      	movs	r3, #0
 8003e0a:	2200      	movs	r2, #0
 8003e0c:	f7fe fcb4 	bl	8002778 <xQueueGenericSend>
 8003e10:	6278      	str	r0, [r7, #36]	@ 0x24
 8003e12:	e008      	b.n	8003e26 <xTimerGenericCommand+0x8e>
 8003e14:	4b06      	ldr	r3, [pc, #24]	@ (8003e30 <xTimerGenericCommand+0x98>)
 8003e16:	6818      	ldr	r0, [r3, #0]
 8003e18:	f107 0110 	add.w	r1, r7, #16
 8003e1c:	2300      	movs	r3, #0
 8003e1e:	683a      	ldr	r2, [r7, #0]
 8003e20:	f7fe fdac 	bl	800297c <xQueueGenericSendFromISR>
 8003e24:	6278      	str	r0, [r7, #36]	@ 0x24
 8003e26:	6a7b      	ldr	r3, [r7, #36]	@ 0x24
 8003e28:	4618      	mov	r0, r3
 8003e2a:	3728      	adds	r7, #40	@ 0x28
 8003e2c:	46bd      	mov	sp, r7
 8003e2e:	bd80      	pop	{r7, pc}
 8003e30:	20000cec 	.word	0x20000cec

08003e34 <prvProcessExpiredTimer>:
 8003e34:	b580      	push	{r7, lr}
 8003e36:	b088      	sub	sp, #32
 8003e38:	af02      	add	r7, sp, #8
 8003e3a:	6078      	str	r0, [r7, #4]
 8003e3c:	6039      	str	r1, [r7, #0]
 8003e3e:	4b23      	ldr	r3, [pc, #140]	@ (8003ecc <prvProcessExpiredTimer+0x98>)
 8003e40:	681b      	ldr	r3, [r3, #0]
 8003e42:	68db      	ldr	r3, [r3, #12]
 8003e44:	68db      	ldr	r3, [r3, #12]
 8003e46:	617b      	str	r3, [r7, #20]
 8003e48:	697b      	ldr	r3, [r7, #20]
 8003e4a:	3304      	adds	r3, #4
 8003e4c:	4618      	mov	r0, r3
 8003e4e:	f7fe fb5f 	bl	8002510 <uxListRemove>
 8003e52:	697b      	ldr	r3, [r7, #20]
 8003e54:	f893 3028 	ldrb.w	r3, [r3, #40]	@ 0x28
 8003e58:	f003 0304 	and.w	r3, r3, #4
 8003e5c:	2b00      	cmp	r3, #0
 8003e5e:	d023      	beq.n	8003ea8 <prvProcessExpiredTimer+0x74>
 8003e60:	697b      	ldr	r3, [r7, #20]
 8003e62:	699a      	ldr	r2, [r3, #24]
 8003e64:	687b      	ldr	r3, [r7, #4]
 8003e66:	18d1      	adds	r1, r2, r3
 8003e68:	687b      	ldr	r3, [r7, #4]
 8003e6a:	683a      	ldr	r2, [r7, #0]
 8003e6c:	6978      	ldr	r0, [r7, #20]
 8003e6e:	f000 f8d5 	bl	800401c <prvInsertTimerInActiveList>
 8003e72:	4603      	mov	r3, r0
 8003e74:	2b00      	cmp	r3, #0
 8003e76:	d020      	beq.n	8003eba <prvProcessExpiredTimer+0x86>
 8003e78:	2300      	movs	r3, #0
 8003e7a:	9300      	str	r3, [sp, #0]
 8003e7c:	2300      	movs	r3, #0
 8003e7e:	687a      	ldr	r2, [r7, #4]
 8003e80:	2100      	movs	r1, #0
 8003e82:	6978      	ldr	r0, [r7, #20]
 8003e84:	f7ff ff88 	bl	8003d98 <xTimerGenericCommand>
 8003e88:	6138      	str	r0, [r7, #16]
 8003e8a:	693b      	ldr	r3, [r7, #16]
 8003e8c:	2b00      	cmp	r3, #0
 8003e8e:	d114      	bne.n	8003eba <prvProcessExpiredTimer+0x86>
 8003e90:	f04f 0350 	mov.w	r3, #80	@ 0x50
 8003e94:	f383 8811 	msr	BASEPRI, r3
 8003e98:	f3bf 8f6f 	isb	sy
 8003e9c:	f3bf 8f4f 	dsb	sy
 8003ea0:	60fb      	str	r3, [r7, #12]
 8003ea2:	bf00      	nop
 8003ea4:	bf00      	nop
 8003ea6:	e7fd      	b.n	8003ea4 <prvProcessExpiredTimer+0x70>
 8003ea8:	697b      	ldr	r3, [r7, #20]
 8003eaa:	f893 3028 	ldrb.w	r3, [r3, #40]	@ 0x28
 8003eae:	f023 0301 	bic.w	r3, r3, #1
 8003eb2:	b2da      	uxtb	r2, r3
 8003eb4:	697b      	ldr	r3, [r7, #20]
 8003eb6:	f883 2028 	strb.w	r2, [r3, #40]	@ 0x28
 8003eba:	697b      	ldr	r3, [r7, #20]
 8003ebc:	6a1b      	ldr	r3, [r3, #32]
 8003ebe:	6978      	ldr	r0, [r7, #20]
 8003ec0:	4798      	blx	r3
 8003ec2:	bf00      	nop
 8003ec4:	3718      	adds	r7, #24
 8003ec6:	46bd      	mov	sp, r7
 8003ec8:	bd80      	pop	{r7, pc}
 8003eca:	bf00      	nop
 8003ecc:	20000ce4 	.word	0x20000ce4

08003ed0 <prvTimerTask>:
 8003ed0:	b580      	push	{r7, lr}
 8003ed2:	b084      	sub	sp, #16
 8003ed4:	af00      	add	r7, sp, #0
 8003ed6:	6078      	str	r0, [r7, #4]
 8003ed8:	f107 0308 	add.w	r3, r7, #8
 8003edc:	4618      	mov	r0, r3
 8003ede:	f000 f859 	bl	8003f94 <prvGetNextExpireTime>
 8003ee2:	60f8      	str	r0, [r7, #12]
 8003ee4:	68bb      	ldr	r3, [r7, #8]
 8003ee6:	4619      	mov	r1, r3
 8003ee8:	68f8      	ldr	r0, [r7, #12]
 8003eea:	f000 f805 	bl	8003ef8 <prvProcessTimerOrBlockTask>
 8003eee:	f000 f8d7 	bl	80040a0 <prvProcessReceivedCommands>
 8003ef2:	bf00      	nop
 8003ef4:	e7f0      	b.n	8003ed8 <prvTimerTask+0x8>
	...

08003ef8 <prvProcessTimerOrBlockTask>:
 8003ef8:	b580      	push	{r7, lr}
 8003efa:	b084      	sub	sp, #16
 8003efc:	af00      	add	r7, sp, #0
 8003efe:	6078      	str	r0, [r7, #4]
 8003f00:	6039      	str	r1, [r7, #0]
 8003f02:	f7ff fa37 	bl	8003374 <vTaskSuspendAll>
 8003f06:	f107 0308 	add.w	r3, r7, #8
 8003f0a:	4618      	mov	r0, r3
 8003f0c:	f000 f866 	bl	8003fdc <prvSampleTimeNow>
 8003f10:	60f8      	str	r0, [r7, #12]
 8003f12:	68bb      	ldr	r3, [r7, #8]
 8003f14:	2b00      	cmp	r3, #0
 8003f16:	d130      	bne.n	8003f7a <prvProcessTimerOrBlockTask+0x82>
 8003f18:	683b      	ldr	r3, [r7, #0]
 8003f1a:	2b00      	cmp	r3, #0
 8003f1c:	d10a      	bne.n	8003f34 <prvProcessTimerOrBlockTask+0x3c>
 8003f1e:	687a      	ldr	r2, [r7, #4]
 8003f20:	68fb      	ldr	r3, [r7, #12]
 8003f22:	429a      	cmp	r2, r3
 8003f24:	d806      	bhi.n	8003f34 <prvProcessTimerOrBlockTask+0x3c>
 8003f26:	f7ff fa33 	bl	8003390 <xTaskResumeAll>
 8003f2a:	68f9      	ldr	r1, [r7, #12]
 8003f2c:	6878      	ldr	r0, [r7, #4]
 8003f2e:	f7ff ff81 	bl	8003e34 <prvProcessExpiredTimer>
 8003f32:	e024      	b.n	8003f7e <prvProcessTimerOrBlockTask+0x86>
 8003f34:	683b      	ldr	r3, [r7, #0]
 8003f36:	2b00      	cmp	r3, #0
 8003f38:	d008      	beq.n	8003f4c <prvProcessTimerOrBlockTask+0x54>
 8003f3a:	4b13      	ldr	r3, [pc, #76]	@ (8003f88 <prvProcessTimerOrBlockTask+0x90>)
 8003f3c:	681b      	ldr	r3, [r3, #0]
 8003f3e:	681b      	ldr	r3, [r3, #0]
 8003f40:	2b00      	cmp	r3, #0
 8003f42:	d101      	bne.n	8003f48 <prvProcessTimerOrBlockTask+0x50>
 8003f44:	2301      	movs	r3, #1
 8003f46:	e000      	b.n	8003f4a <prvProcessTimerOrBlockTask+0x52>
 8003f48:	2300      	movs	r3, #0
 8003f4a:	603b      	str	r3, [r7, #0]
 8003f4c:	4b0f      	ldr	r3, [pc, #60]	@ (8003f8c <prvProcessTimerOrBlockTask+0x94>)
 8003f4e:	6818      	ldr	r0, [r3, #0]
 8003f50:	687a      	ldr	r2, [r7, #4]
 8003f52:	68fb      	ldr	r3, [r7, #12]
 8003f54:	1ad3      	subs	r3, r2, r3
 8003f56:	683a      	ldr	r2, [r7, #0]
 8003f58:	4619      	mov	r1, r3
 8003f5a:	f7fe ffc9 	bl	8002ef0 <vQueueWaitForMessageRestricted>
 8003f5e:	f7ff fa17 	bl	8003390 <xTaskResumeAll>
 8003f62:	4603      	mov	r3, r0
 8003f64:	2b00      	cmp	r3, #0
 8003f66:	d10a      	bne.n	8003f7e <prvProcessTimerOrBlockTask+0x86>
 8003f68:	4b09      	ldr	r3, [pc, #36]	@ (8003f90 <prvProcessTimerOrBlockTask+0x98>)
 8003f6a:	f04f 5280 	mov.w	r2, #268435456	@ 0x10000000
 8003f6e:	601a      	str	r2, [r3, #0]
 8003f70:	f3bf 8f4f 	dsb	sy
 8003f74:	f3bf 8f6f 	isb	sy
 8003f78:	e001      	b.n	8003f7e <prvProcessTimerOrBlockTask+0x86>
 8003f7a:	f7ff fa09 	bl	8003390 <xTaskResumeAll>
 8003f7e:	bf00      	nop
 8003f80:	3710      	adds	r7, #16
 8003f82:	46bd      	mov	sp, r7
 8003f84:	bd80      	pop	{r7, pc}
 8003f86:	bf00      	nop
 8003f88:	20000ce8 	.word	0x20000ce8
 8003f8c:	20000cec 	.word	0x20000cec
 8003f90:	e000ed04 	.word	0xe000ed04

08003f94 <prvGetNextExpireTime>:
 8003f94:	b480      	push	{r7}
 8003f96:	b085      	sub	sp, #20
 8003f98:	af00      	add	r7, sp, #0
 8003f9a:	6078      	str	r0, [r7, #4]
 8003f9c:	4b0e      	ldr	r3, [pc, #56]	@ (8003fd8 <prvGetNextExpireTime+0x44>)
 8003f9e:	681b      	ldr	r3, [r3, #0]
 8003fa0:	681b      	ldr	r3, [r3, #0]
 8003fa2:	2b00      	cmp	r3, #0
 8003fa4:	d101      	bne.n	8003faa <prvGetNextExpireTime+0x16>
 8003fa6:	2201      	movs	r2, #1
 8003fa8:	e000      	b.n	8003fac <prvGetNextExpireTime+0x18>
 8003faa:	2200      	movs	r2, #0
 8003fac:	687b      	ldr	r3, [r7, #4]
 8003fae:	601a      	str	r2, [r3, #0]
 8003fb0:	687b      	ldr	r3, [r7, #4]
 8003fb2:	681b      	ldr	r3, [r3, #0]
 8003fb4:	2b00      	cmp	r3, #0
 8003fb6:	d105      	bne.n	8003fc4 <prvGetNextExpireTime+0x30>
 8003fb8:	4b07      	ldr	r3, [pc, #28]	@ (8003fd8 <prvGetNextExpireTime+0x44>)
 8003fba:	681b      	ldr	r3, [r3, #0]
 8003fbc:	68db      	ldr	r3, [r3, #12]
 8003fbe:	681b      	ldr	r3, [r3, #0]
 8003fc0:	60fb      	str	r3, [r7, #12]
 8003fc2:	e001      	b.n	8003fc8 <prvGetNextExpireTime+0x34>
 8003fc4:	2300      	movs	r3, #0
 8003fc6:	60fb      	str	r3, [r7, #12]
 8003fc8:	68fb      	ldr	r3, [r7, #12]
 8003fca:	4618      	mov	r0, r3
 8003fcc:	3714      	adds	r7, #20
 8003fce:	46bd      	mov	sp, r7
 8003fd0:	f85d 7b04 	ldr.w	r7, [sp], #4
 8003fd4:	4770      	bx	lr
 8003fd6:	bf00      	nop
 8003fd8:	20000ce4 	.word	0x20000ce4

08003fdc <prvSampleTimeNow>:
 8003fdc:	b580      	push	{r7, lr}
 8003fde:	b084      	sub	sp, #16
 8003fe0:	af00      	add	r7, sp, #0
 8003fe2:	6078      	str	r0, [r7, #4]
 8003fe4:	f7ff fa72 	bl	80034cc <xTaskGetTickCount>
 8003fe8:	60f8      	str	r0, [r7, #12]
 8003fea:	4b0b      	ldr	r3, [pc, #44]	@ (8004018 <prvSampleTimeNow+0x3c>)
 8003fec:	681b      	ldr	r3, [r3, #0]
 8003fee:	68fa      	ldr	r2, [r7, #12]
 8003ff0:	429a      	cmp	r2, r3
 8003ff2:	d205      	bcs.n	8004000 <prvSampleTimeNow+0x24>
 8003ff4:	f000 f93a 	bl	800426c <prvSwitchTimerLists>
 8003ff8:	687b      	ldr	r3, [r7, #4]
 8003ffa:	2201      	movs	r2, #1
 8003ffc:	601a      	str	r2, [r3, #0]
 8003ffe:	e002      	b.n	8004006 <prvSampleTimeNow+0x2a>
 8004000:	687b      	ldr	r3, [r7, #4]
 8004002:	2200      	movs	r2, #0
 8004004:	601a      	str	r2, [r3, #0]
 8004006:	4a04      	ldr	r2, [pc, #16]	@ (8004018 <prvSampleTimeNow+0x3c>)
 8004008:	68fb      	ldr	r3, [r7, #12]
 800400a:	6013      	str	r3, [r2, #0]
 800400c:	68fb      	ldr	r3, [r7, #12]
 800400e:	4618      	mov	r0, r3
 8004010:	3710      	adds	r7, #16
 8004012:	46bd      	mov	sp, r7
 8004014:	bd80      	pop	{r7, pc}
 8004016:	bf00      	nop
 8004018:	20000cf4 	.word	0x20000cf4

0800401c <prvInsertTimerInActiveList>:
 800401c:	b580      	push	{r7, lr}
 800401e:	b086      	sub	sp, #24
 8004020:	af00      	add	r7, sp, #0
 8004022:	60f8      	str	r0, [r7, #12]
 8004024:	60b9      	str	r1, [r7, #8]
 8004026:	607a      	str	r2, [r7, #4]
 8004028:	603b      	str	r3, [r7, #0]
 800402a:	2300      	movs	r3, #0
 800402c:	617b      	str	r3, [r7, #20]
 800402e:	68fb      	ldr	r3, [r7, #12]
 8004030:	68ba      	ldr	r2, [r7, #8]
 8004032:	605a      	str	r2, [r3, #4]
 8004034:	68fb      	ldr	r3, [r7, #12]
 8004036:	68fa      	ldr	r2, [r7, #12]
 8004038:	611a      	str	r2, [r3, #16]
 800403a:	68ba      	ldr	r2, [r7, #8]
 800403c:	687b      	ldr	r3, [r7, #4]
 800403e:	429a      	cmp	r2, r3
 8004040:	d812      	bhi.n	8004068 <prvInsertTimerInActiveList+0x4c>
 8004042:	687a      	ldr	r2, [r7, #4]
 8004044:	683b      	ldr	r3, [r7, #0]
 8004046:	1ad2      	subs	r2, r2, r3
 8004048:	68fb      	ldr	r3, [r7, #12]
 800404a:	699b      	ldr	r3, [r3, #24]
 800404c:	429a      	cmp	r2, r3
 800404e:	d302      	bcc.n	8004056 <prvInsertTimerInActiveList+0x3a>
 8004050:	2301      	movs	r3, #1
 8004052:	617b      	str	r3, [r7, #20]
 8004054:	e01b      	b.n	800408e <prvInsertTimerInActiveList+0x72>
 8004056:	4b10      	ldr	r3, [pc, #64]	@ (8004098 <prvInsertTimerInActiveList+0x7c>)
 8004058:	681a      	ldr	r2, [r3, #0]
 800405a:	68fb      	ldr	r3, [r7, #12]
 800405c:	3304      	adds	r3, #4
 800405e:	4619      	mov	r1, r3
 8004060:	4610      	mov	r0, r2
 8004062:	f7fe fa1c 	bl	800249e <vListInsert>
 8004066:	e012      	b.n	800408e <prvInsertTimerInActiveList+0x72>
 8004068:	687a      	ldr	r2, [r7, #4]
 800406a:	683b      	ldr	r3, [r7, #0]
 800406c:	429a      	cmp	r2, r3
 800406e:	d206      	bcs.n	800407e <prvInsertTimerInActiveList+0x62>
 8004070:	68ba      	ldr	r2, [r7, #8]
 8004072:	683b      	ldr	r3, [r7, #0]
 8004074:	429a      	cmp	r2, r3
 8004076:	d302      	bcc.n	800407e <prvInsertTimerInActiveList+0x62>
 8004078:	2301      	movs	r3, #1
 800407a:	617b      	str	r3, [r7, #20]
 800407c:	e007      	b.n	800408e <prvInsertTimerInActiveList+0x72>
 800407e:	4b07      	ldr	r3, [pc, #28]	@ (800409c <prvInsertTimerInActiveList+0x80>)
 8004080:	681a      	ldr	r2, [r3, #0]
 8004082:	68fb      	ldr	r3, [r7, #12]
 8004084:	3304      	adds	r3, #4
 8004086:	4619      	mov	r1, r3
 8004088:	4610      	mov	r0, r2
 800408a:	f7fe fa08 	bl	800249e <vListInsert>
 800408e:	697b      	ldr	r3, [r7, #20]
 8004090:	4618      	mov	r0, r3
 8004092:	3718      	adds	r7, #24
 8004094:	46bd      	mov	sp, r7
 8004096:	bd80      	pop	{r7, pc}
 8004098:	20000ce8 	.word	0x20000ce8
 800409c:	20000ce4 	.word	0x20000ce4

080040a0 <prvProcessReceivedCommands>:
 80040a0:	b580      	push	{r7, lr}
 80040a2:	b08e      	sub	sp, #56	@ 0x38
 80040a4:	af02      	add	r7, sp, #8
 80040a6:	e0ce      	b.n	8004246 <prvProcessReceivedCommands+0x1a6>
 80040a8:	687b      	ldr	r3, [r7, #4]
 80040aa:	2b00      	cmp	r3, #0
 80040ac:	da19      	bge.n	80040e2 <prvProcessReceivedCommands+0x42>
 80040ae:	1d3b      	adds	r3, r7, #4
 80040b0:	3304      	adds	r3, #4
 80040b2:	62fb      	str	r3, [r7, #44]	@ 0x2c
 80040b4:	6afb      	ldr	r3, [r7, #44]	@ 0x2c
 80040b6:	2b00      	cmp	r3, #0
 80040b8:	d10b      	bne.n	80040d2 <prvProcessReceivedCommands+0x32>
 80040ba:	f04f 0350 	mov.w	r3, #80	@ 0x50
 80040be:	f383 8811 	msr	BASEPRI, r3
 80040c2:	f3bf 8f6f 	isb	sy
 80040c6:	f3bf 8f4f 	dsb	sy
 80040ca:	61fb      	str	r3, [r7, #28]
 80040cc:	bf00      	nop
 80040ce:	bf00      	nop
 80040d0:	e7fd      	b.n	80040ce <prvProcessReceivedCommands+0x2e>
 80040d2:	6afb      	ldr	r3, [r7, #44]	@ 0x2c
 80040d4:	681b      	ldr	r3, [r3, #0]
 80040d6:	6afa      	ldr	r2, [r7, #44]	@ 0x2c
 80040d8:	6850      	ldr	r0, [r2, #4]
 80040da:	6afa      	ldr	r2, [r7, #44]	@ 0x2c
 80040dc:	6892      	ldr	r2, [r2, #8]
 80040de:	4611      	mov	r1, r2
 80040e0:	4798      	blx	r3
 80040e2:	687b      	ldr	r3, [r7, #4]
 80040e4:	2b00      	cmp	r3, #0
 80040e6:	f2c0 80ae 	blt.w	8004246 <prvProcessReceivedCommands+0x1a6>
 80040ea:	68fb      	ldr	r3, [r7, #12]
 80040ec:	62bb      	str	r3, [r7, #40]	@ 0x28
 80040ee:	6abb      	ldr	r3, [r7, #40]	@ 0x28
 80040f0:	695b      	ldr	r3, [r3, #20]
 80040f2:	2b00      	cmp	r3, #0
 80040f4:	d004      	beq.n	8004100 <prvProcessReceivedCommands+0x60>
 80040f6:	6abb      	ldr	r3, [r7, #40]	@ 0x28
 80040f8:	3304      	adds	r3, #4
 80040fa:	4618      	mov	r0, r3
 80040fc:	f7fe fa08 	bl	8002510 <uxListRemove>
 8004100:	463b      	mov	r3, r7
 8004102:	4618      	mov	r0, r3
 8004104:	f7ff ff6a 	bl	8003fdc <prvSampleTimeNow>
 8004108:	6278      	str	r0, [r7, #36]	@ 0x24
 800410a:	687b      	ldr	r3, [r7, #4]
 800410c:	2b09      	cmp	r3, #9
 800410e:	f200 8097 	bhi.w	8004240 <prvProcessReceivedCommands+0x1a0>
 8004112:	a201      	add	r2, pc, #4	@ (adr r2, 8004118 <prvProcessReceivedCommands+0x78>)
 8004114:	f852 f023 	ldr.w	pc, [r2, r3, lsl #2]
 8004118:	08004141 	.word	0x08004141
 800411c:	08004141 	.word	0x08004141
 8004120:	08004141 	.word	0x08004141
 8004124:	080041b7 	.word	0x080041b7
 8004128:	080041cb 	.word	0x080041cb
 800412c:	08004217 	.word	0x08004217
 8004130:	08004141 	.word	0x08004141
 8004134:	08004141 	.word	0x08004141
 8004138:	080041b7 	.word	0x080041b7
 800413c:	080041cb 	.word	0x080041cb
 8004140:	6abb      	ldr	r3, [r7, #40]	@ 0x28
 8004142:	f893 3028 	ldrb.w	r3, [r3, #40]	@ 0x28
 8004146:	f043 0301 	orr.w	r3, r3, #1
 800414a:	b2da      	uxtb	r2, r3
 800414c:	6abb      	ldr	r3, [r7, #40]	@ 0x28
 800414e:	f883 2028 	strb.w	r2, [r3, #40]	@ 0x28
 8004152:	68ba      	ldr	r2, [r7, #8]
 8004154:	6abb      	ldr	r3, [r7, #40]	@ 0x28
 8004156:	699b      	ldr	r3, [r3, #24]
 8004158:	18d1      	adds	r1, r2, r3
 800415a:	68bb      	ldr	r3, [r7, #8]
 800415c:	6a7a      	ldr	r2, [r7, #36]	@ 0x24
 800415e:	6ab8      	ldr	r0, [r7, #40]	@ 0x28
 8004160:	f7ff ff5c 	bl	800401c <prvInsertTimerInActiveList>
 8004164:	4603      	mov	r3, r0
 8004166:	2b00      	cmp	r3, #0
 8004168:	d06c      	beq.n	8004244 <prvProcessReceivedCommands+0x1a4>
 800416a:	6abb      	ldr	r3, [r7, #40]	@ 0x28
 800416c:	6a1b      	ldr	r3, [r3, #32]
 800416e:	6ab8      	ldr	r0, [r7, #40]	@ 0x28
 8004170:	4798      	blx	r3
 8004172:	6abb      	ldr	r3, [r7, #40]	@ 0x28
 8004174:	f893 3028 	ldrb.w	r3, [r3, #40]	@ 0x28
 8004178:	f003 0304 	and.w	r3, r3, #4
 800417c:	2b00      	cmp	r3, #0
 800417e:	d061      	beq.n	8004244 <prvProcessReceivedCommands+0x1a4>
 8004180:	68ba      	ldr	r2, [r7, #8]
 8004182:	6abb      	ldr	r3, [r7, #40]	@ 0x28
 8004184:	699b      	ldr	r3, [r3, #24]
 8004186:	441a      	add	r2, r3
 8004188:	2300      	movs	r3, #0
 800418a:	9300      	str	r3, [sp, #0]
 800418c:	2300      	movs	r3, #0
 800418e:	2100      	movs	r1, #0
 8004190:	6ab8      	ldr	r0, [r7, #40]	@ 0x28
 8004192:	f7ff fe01 	bl	8003d98 <xTimerGenericCommand>
 8004196:	6238      	str	r0, [r7, #32]
 8004198:	6a3b      	ldr	r3, [r7, #32]
 800419a:	2b00      	cmp	r3, #0
 800419c:	d152      	bne.n	8004244 <prvProcessReceivedCommands+0x1a4>
 800419e:	f04f 0350 	mov.w	r3, #80	@ 0x50
 80041a2:	f383 8811 	msr	BASEPRI, r3
 80041a6:	f3bf 8f6f 	isb	sy
 80041aa:	f3bf 8f4f 	dsb	sy
 80041ae:	61bb      	str	r3, [r7, #24]
 80041b0:	bf00      	nop
 80041b2:	bf00      	nop
 80041b4:	e7fd      	b.n	80041b2 <prvProcessReceivedCommands+0x112>
 80041b6:	6abb      	ldr	r3, [r7, #40]	@ 0x28
 80041b8:	f893 3028 	ldrb.w	r3, [r3, #40]	@ 0x28
 80041bc:	f023 0301 	bic.w	r3, r3, #1
 80041c0:	b2da      	uxtb	r2, r3
 80041c2:	6abb      	ldr	r3, [r7, #40]	@ 0x28
 80041c4:	f883 2028 	strb.w	r2, [r3, #40]	@ 0x28
 80041c8:	e03d      	b.n	8004246 <prvProcessReceivedCommands+0x1a6>
 80041ca:	6abb      	ldr	r3, [r7, #40]	@ 0x28
 80041cc:	f893 3028 	ldrb.w	r3, [r3, #40]	@ 0x28
 80041d0:	f043 0301 	orr.w	r3, r3, #1
 80041d4:	b2da      	uxtb	r2, r3
 80041d6:	6abb      	ldr	r3, [r7, #40]	@ 0x28
 80041d8:	f883 2028 	strb.w	r2, [r3, #40]	@ 0x28
 80041dc:	68ba      	ldr	r2, [r7, #8]
 80041de:	6abb      	ldr	r3, [r7, #40]	@ 0x28
 80041e0:	619a      	str	r2, [r3, #24]
 80041e2:	6abb      	ldr	r3, [r7, #40]	@ 0x28
 80041e4:	699b      	ldr	r3, [r3, #24]
 80041e6:	2b00      	cmp	r3, #0
 80041e8:	d10b      	bne.n	8004202 <prvProcessReceivedCommands+0x162>
 80041ea:	f04f 0350 	mov.w	r3, #80	@ 0x50
 80041ee:	f383 8811 	msr	BASEPRI, r3
 80041f2:	f3bf 8f6f 	isb	sy
 80041f6:	f3bf 8f4f 	dsb	sy
 80041fa:	617b      	str	r3, [r7, #20]
 80041fc:	bf00      	nop
 80041fe:	bf00      	nop
 8004200:	e7fd      	b.n	80041fe <prvProcessReceivedCommands+0x15e>
 8004202:	6abb      	ldr	r3, [r7, #40]	@ 0x28
 8004204:	699a      	ldr	r2, [r3, #24]
 8004206:	6a7b      	ldr	r3, [r7, #36]	@ 0x24
 8004208:	18d1      	adds	r1, r2, r3
 800420a:	6a7b      	ldr	r3, [r7, #36]	@ 0x24
 800420c:	6a7a      	ldr	r2, [r7, #36]	@ 0x24
 800420e:	6ab8      	ldr	r0, [r7, #40]	@ 0x28
 8004210:	f7ff ff04 	bl	800401c <prvInsertTimerInActiveList>
 8004214:	e017      	b.n	8004246 <prvProcessReceivedCommands+0x1a6>
 8004216:	6abb      	ldr	r3, [r7, #40]	@ 0x28
 8004218:	f893 3028 	ldrb.w	r3, [r3, #40]	@ 0x28
 800421c:	f003 0302 	and.w	r3, r3, #2
 8004220:	2b00      	cmp	r3, #0
 8004222:	d103      	bne.n	800422c <prvProcessReceivedCommands+0x18c>
 8004224:	6ab8      	ldr	r0, [r7, #40]	@ 0x28
 8004226:	f000 fbe7 	bl	80049f8 <vPortFree>
 800422a:	e00c      	b.n	8004246 <prvProcessReceivedCommands+0x1a6>
 800422c:	6abb      	ldr	r3, [r7, #40]	@ 0x28
 800422e:	f893 3028 	ldrb.w	r3, [r3, #40]	@ 0x28
 8004232:	f023 0301 	bic.w	r3, r3, #1
 8004236:	b2da      	uxtb	r2, r3
 8004238:	6abb      	ldr	r3, [r7, #40]	@ 0x28
 800423a:	f883 2028 	strb.w	r2, [r3, #40]	@ 0x28
 800423e:	e002      	b.n	8004246 <prvProcessReceivedCommands+0x1a6>
 8004240:	bf00      	nop
 8004242:	e000      	b.n	8004246 <prvProcessReceivedCommands+0x1a6>
 8004244:	bf00      	nop
 8004246:	4b08      	ldr	r3, [pc, #32]	@ (8004268 <prvProcessReceivedCommands+0x1c8>)
 8004248:	681b      	ldr	r3, [r3, #0]
 800424a:	1d39      	adds	r1, r7, #4
 800424c:	2200      	movs	r2, #0
 800424e:	4618      	mov	r0, r3
 8004250:	f7fe fc32 	bl	8002ab8 <xQueueReceive>
 8004254:	4603      	mov	r3, r0
 8004256:	2b00      	cmp	r3, #0
 8004258:	f47f af26 	bne.w	80040a8 <prvProcessReceivedCommands+0x8>
 800425c:	bf00      	nop
 800425e:	bf00      	nop
 8004260:	3730      	adds	r7, #48	@ 0x30
 8004262:	46bd      	mov	sp, r7
 8004264:	bd80      	pop	{r7, pc}
 8004266:	bf00      	nop
 8004268:	20000cec 	.word	0x20000cec

0800426c <prvSwitchTimerLists>:
 800426c:	b580      	push	{r7, lr}
 800426e:	b088      	sub	sp, #32
 8004270:	af02      	add	r7, sp, #8
 8004272:	e049      	b.n	8004308 <prvSwitchTimerLists+0x9c>
 8004274:	4b2e      	ldr	r3, [pc, #184]	@ (8004330 <prvSwitchTimerLists+0xc4>)
 8004276:	681b      	ldr	r3, [r3, #0]
 8004278:	68db      	ldr	r3, [r3, #12]
 800427a:	681b      	ldr	r3, [r3, #0]
 800427c:	613b      	str	r3, [r7, #16]
 800427e:	4b2c      	ldr	r3, [pc, #176]	@ (8004330 <prvSwitchTimerLists+0xc4>)
 8004280:	681b      	ldr	r3, [r3, #0]
 8004282:	68db      	ldr	r3, [r3, #12]
 8004284:	68db      	ldr	r3, [r3, #12]
 8004286:	60fb      	str	r3, [r7, #12]
 8004288:	68fb      	ldr	r3, [r7, #12]
 800428a:	3304      	adds	r3, #4
 800428c:	4618      	mov	r0, r3
 800428e:	f7fe f93f 	bl	8002510 <uxListRemove>
 8004292:	68fb      	ldr	r3, [r7, #12]
 8004294:	6a1b      	ldr	r3, [r3, #32]
 8004296:	68f8      	ldr	r0, [r7, #12]
 8004298:	4798      	blx	r3
 800429a:	68fb      	ldr	r3, [r7, #12]
 800429c:	f893 3028 	ldrb.w	r3, [r3, #40]	@ 0x28
 80042a0:	f003 0304 	and.w	r3, r3, #4
 80042a4:	2b00      	cmp	r3, #0
 80042a6:	d02f      	beq.n	8004308 <prvSwitchTimerLists+0x9c>
 80042a8:	68fb      	ldr	r3, [r7, #12]
 80042aa:	699b      	ldr	r3, [r3, #24]
 80042ac:	693a      	ldr	r2, [r7, #16]
 80042ae:	4413      	add	r3, r2
 80042b0:	60bb      	str	r3, [r7, #8]
 80042b2:	68ba      	ldr	r2, [r7, #8]
 80042b4:	693b      	ldr	r3, [r7, #16]
 80042b6:	429a      	cmp	r2, r3
 80042b8:	d90e      	bls.n	80042d8 <prvSwitchTimerLists+0x6c>
 80042ba:	68fb      	ldr	r3, [r7, #12]
 80042bc:	68ba      	ldr	r2, [r7, #8]
 80042be:	605a      	str	r2, [r3, #4]
 80042c0:	68fb      	ldr	r3, [r7, #12]
 80042c2:	68fa      	ldr	r2, [r7, #12]
 80042c4:	611a      	str	r2, [r3, #16]
 80042c6:	4b1a      	ldr	r3, [pc, #104]	@ (8004330 <prvSwitchTimerLists+0xc4>)
 80042c8:	681a      	ldr	r2, [r3, #0]
 80042ca:	68fb      	ldr	r3, [r7, #12]
 80042cc:	3304      	adds	r3, #4
 80042ce:	4619      	mov	r1, r3
 80042d0:	4610      	mov	r0, r2
 80042d2:	f7fe f8e4 	bl	800249e <vListInsert>
 80042d6:	e017      	b.n	8004308 <prvSwitchTimerLists+0x9c>
 80042d8:	2300      	movs	r3, #0
 80042da:	9300      	str	r3, [sp, #0]
 80042dc:	2300      	movs	r3, #0
 80042de:	693a      	ldr	r2, [r7, #16]
 80042e0:	2100      	movs	r1, #0
 80042e2:	68f8      	ldr	r0, [r7, #12]
 80042e4:	f7ff fd58 	bl	8003d98 <xTimerGenericCommand>
 80042e8:	6078      	str	r0, [r7, #4]
 80042ea:	687b      	ldr	r3, [r7, #4]
 80042ec:	2b00      	cmp	r3, #0
 80042ee:	d10b      	bne.n	8004308 <prvSwitchTimerLists+0x9c>
 80042f0:	f04f 0350 	mov.w	r3, #80	@ 0x50
 80042f4:	f383 8811 	msr	BASEPRI, r3
 80042f8:	f3bf 8f6f 	isb	sy
 80042fc:	f3bf 8f4f 	dsb	sy
 8004300:	603b      	str	r3, [r7, #0]
 8004302:	bf00      	nop
 8004304:	bf00      	nop
 8004306:	e7fd      	b.n	8004304 <prvSwitchTimerLists+0x98>
 8004308:	4b09      	ldr	r3, [pc, #36]	@ (8004330 <prvSwitchTimerLists+0xc4>)
 800430a:	681b      	ldr	r3, [r3, #0]
 800430c:	681b      	ldr	r3, [r3, #0]
 800430e:	2b00      	cmp	r3, #0
 8004310:	d1b0      	bne.n	8004274 <prvSwitchTimerLists+0x8>
 8004312:	4b07      	ldr	r3, [pc, #28]	@ (8004330 <prvSwitchTimerLists+0xc4>)
 8004314:	681b      	ldr	r3, [r3, #0]
 8004316:	617b      	str	r3, [r7, #20]
 8004318:	4b06      	ldr	r3, [pc, #24]	@ (8004334 <prvSwitchTimerLists+0xc8>)
 800431a:	681b      	ldr	r3, [r3, #0]
 800431c:	4a04      	ldr	r2, [pc, #16]	@ (8004330 <prvSwitchTimerLists+0xc4>)
 800431e:	6013      	str	r3, [r2, #0]
 8004320:	4a04      	ldr	r2, [pc, #16]	@ (8004334 <prvSwitchTimerLists+0xc8>)
 8004322:	697b      	ldr	r3, [r7, #20]
 8004324:	6013      	str	r3, [r2, #0]
 8004326:	bf00      	nop
 8004328:	3718      	adds	r7, #24
 800432a:	46bd      	mov	sp, r7
 800432c:	bd80      	pop	{r7, pc}
 800432e:	bf00      	nop
 8004330:	20000ce4 	.word	0x20000ce4
 8004334:	20000ce8 	.word	0x20000ce8

08004338 <prvCheckForValidListAndQueue>:
 8004338:	b580      	push	{r7, lr}
 800433a:	b082      	sub	sp, #8
 800433c:	af02      	add	r7, sp, #8
 800433e:	f000 f96b 	bl	8004618 <vPortEnterCritical>
 8004342:	4b15      	ldr	r3, [pc, #84]	@ (8004398 <prvCheckForValidListAndQueue+0x60>)
 8004344:	681b      	ldr	r3, [r3, #0]
 8004346:	2b00      	cmp	r3, #0
 8004348:	d120      	bne.n	800438c <prvCheckForValidListAndQueue+0x54>
 800434a:	4814      	ldr	r0, [pc, #80]	@ (800439c <prvCheckForValidListAndQueue+0x64>)
 800434c:	f7fe f856 	bl	80023fc <vListInitialise>
 8004350:	4813      	ldr	r0, [pc, #76]	@ (80043a0 <prvCheckForValidListAndQueue+0x68>)
 8004352:	f7fe f853 	bl	80023fc <vListInitialise>
 8004356:	4b13      	ldr	r3, [pc, #76]	@ (80043a4 <prvCheckForValidListAndQueue+0x6c>)
 8004358:	4a10      	ldr	r2, [pc, #64]	@ (800439c <prvCheckForValidListAndQueue+0x64>)
 800435a:	601a      	str	r2, [r3, #0]
 800435c:	4b12      	ldr	r3, [pc, #72]	@ (80043a8 <prvCheckForValidListAndQueue+0x70>)
 800435e:	4a10      	ldr	r2, [pc, #64]	@ (80043a0 <prvCheckForValidListAndQueue+0x68>)
 8004360:	601a      	str	r2, [r3, #0]
 8004362:	2300      	movs	r3, #0
 8004364:	9300      	str	r3, [sp, #0]
 8004366:	4b11      	ldr	r3, [pc, #68]	@ (80043ac <prvCheckForValidListAndQueue+0x74>)
 8004368:	4a11      	ldr	r2, [pc, #68]	@ (80043b0 <prvCheckForValidListAndQueue+0x78>)
 800436a:	2110      	movs	r1, #16
 800436c:	200a      	movs	r0, #10
 800436e:	f7fe f963 	bl	8002638 <xQueueGenericCreateStatic>
 8004372:	4603      	mov	r3, r0
 8004374:	4a08      	ldr	r2, [pc, #32]	@ (8004398 <prvCheckForValidListAndQueue+0x60>)
 8004376:	6013      	str	r3, [r2, #0]
 8004378:	4b07      	ldr	r3, [pc, #28]	@ (8004398 <prvCheckForValidListAndQueue+0x60>)
 800437a:	681b      	ldr	r3, [r3, #0]
 800437c:	2b00      	cmp	r3, #0
 800437e:	d005      	beq.n	800438c <prvCheckForValidListAndQueue+0x54>
 8004380:	4b05      	ldr	r3, [pc, #20]	@ (8004398 <prvCheckForValidListAndQueue+0x60>)
 8004382:	681b      	ldr	r3, [r3, #0]
 8004384:	490b      	ldr	r1, [pc, #44]	@ (80043b4 <prvCheckForValidListAndQueue+0x7c>)
 8004386:	4618      	mov	r0, r3
 8004388:	f7fe fd88 	bl	8002e9c <vQueueAddToRegistry>
 800438c:	f000 f976 	bl	800467c <vPortExitCritical>
 8004390:	bf00      	nop
 8004392:	46bd      	mov	sp, r7
 8004394:	bd80      	pop	{r7, pc}
 8004396:	bf00      	nop
 8004398:	20000cec 	.word	0x20000cec
 800439c:	20000cbc 	.word	0x20000cbc
 80043a0:	20000cd0 	.word	0x20000cd0
 80043a4:	20000ce4 	.word	0x20000ce4
 80043a8:	20000ce8 	.word	0x20000ce8
 80043ac:	20000d98 	.word	0x20000d98
 80043b0:	20000cf8 	.word	0x20000cf8
 80043b4:	08004ce0 	.word	0x08004ce0

080043b8 <pxPortInitialiseStack>:
 80043b8:	b480      	push	{r7}
 80043ba:	b085      	sub	sp, #20
 80043bc:	af00      	add	r7, sp, #0
 80043be:	60f8      	str	r0, [r7, #12]
 80043c0:	60b9      	str	r1, [r7, #8]
 80043c2:	607a      	str	r2, [r7, #4]
 80043c4:	68fb      	ldr	r3, [r7, #12]
 80043c6:	3b04      	subs	r3, #4
 80043c8:	60fb      	str	r3, [r7, #12]
 80043ca:	68fb      	ldr	r3, [r7, #12]
 80043cc:	f04f 7280 	mov.w	r2, #16777216	@ 0x1000000
 80043d0:	601a      	str	r2, [r3, #0]
 80043d2:	68fb      	ldr	r3, [r7, #12]
 80043d4:	3b04      	subs	r3, #4
 80043d6:	60fb      	str	r3, [r7, #12]
 80043d8:	68bb      	ldr	r3, [r7, #8]
 80043da:	f023 0201 	bic.w	r2, r3, #1
 80043de:	68fb      	ldr	r3, [r7, #12]
 80043e0:	601a      	str	r2, [r3, #0]
 80043e2:	68fb      	ldr	r3, [r7, #12]
 80043e4:	3b04      	subs	r3, #4
 80043e6:	60fb      	str	r3, [r7, #12]
 80043e8:	4a0c      	ldr	r2, [pc, #48]	@ (800441c <pxPortInitialiseStack+0x64>)
 80043ea:	68fb      	ldr	r3, [r7, #12]
 80043ec:	601a      	str	r2, [r3, #0]
 80043ee:	68fb      	ldr	r3, [r7, #12]
 80043f0:	3b14      	subs	r3, #20
 80043f2:	60fb      	str	r3, [r7, #12]
 80043f4:	687a      	ldr	r2, [r7, #4]
 80043f6:	68fb      	ldr	r3, [r7, #12]
 80043f8:	601a      	str	r2, [r3, #0]
 80043fa:	68fb      	ldr	r3, [r7, #12]
 80043fc:	3b04      	subs	r3, #4
 80043fe:	60fb      	str	r3, [r7, #12]
 8004400:	68fb      	ldr	r3, [r7, #12]
 8004402:	f06f 0202 	mvn.w	r2, #2
 8004406:	601a      	str	r2, [r3, #0]
 8004408:	68fb      	ldr	r3, [r7, #12]
 800440a:	3b20      	subs	r3, #32
 800440c:	60fb      	str	r3, [r7, #12]
 800440e:	68fb      	ldr	r3, [r7, #12]
 8004410:	4618      	mov	r0, r3
 8004412:	3714      	adds	r7, #20
 8004414:	46bd      	mov	sp, r7
 8004416:	f85d 7b04 	ldr.w	r7, [sp], #4
 800441a:	4770      	bx	lr
 800441c:	08004421 	.word	0x08004421

08004420 <prvTaskExitError>:
 8004420:	b480      	push	{r7}
 8004422:	b085      	sub	sp, #20
 8004424:	af00      	add	r7, sp, #0
 8004426:	2300      	movs	r3, #0
 8004428:	607b      	str	r3, [r7, #4]
 800442a:	4b13      	ldr	r3, [pc, #76]	@ (8004478 <prvTaskExitError+0x58>)
 800442c:	681b      	ldr	r3, [r3, #0]
 800442e:	f1b3 3fff 	cmp.w	r3, #4294967295
 8004432:	d00b      	beq.n	800444c <prvTaskExitError+0x2c>
 8004434:	f04f 0350 	mov.w	r3, #80	@ 0x50
 8004438:	f383 8811 	msr	BASEPRI, r3
 800443c:	f3bf 8f6f 	isb	sy
 8004440:	f3bf 8f4f 	dsb	sy
 8004444:	60fb      	str	r3, [r7, #12]
 8004446:	bf00      	nop
 8004448:	bf00      	nop
 800444a:	e7fd      	b.n	8004448 <prvTaskExitError+0x28>
 800444c:	f04f 0350 	mov.w	r3, #80	@ 0x50
 8004450:	f383 8811 	msr	BASEPRI, r3
 8004454:	f3bf 8f6f 	isb	sy
 8004458:	f3bf 8f4f 	dsb	sy
 800445c:	60bb      	str	r3, [r7, #8]
 800445e:	bf00      	nop
 8004460:	bf00      	nop
 8004462:	687b      	ldr	r3, [r7, #4]
 8004464:	2b00      	cmp	r3, #0
 8004466:	d0fc      	beq.n	8004462 <prvTaskExitError+0x42>
 8004468:	bf00      	nop
 800446a:	bf00      	nop
 800446c:	3714      	adds	r7, #20
 800446e:	46bd      	mov	sp, r7
 8004470:	f85d 7b04 	ldr.w	r7, [sp], #4
 8004474:	4770      	bx	lr
 8004476:	bf00      	nop
 8004478:	2000000c 	.word	0x2000000c
 800447c:	00000000 	.word	0x00000000

08004480 <SVC_Handler>:
 8004480:	4b07      	ldr	r3, [pc, #28]	@ (80044a0 <pxCurrentTCBConst2>)
 8004482:	6819      	ldr	r1, [r3, #0]
 8004484:	6808      	ldr	r0, [r1, #0]
 8004486:	e8b0 4ff0 	ldmia.w	r0!, {r4, r5, r6, r7, r8, r9, sl, fp, lr}
 800448a:	f380 8809 	msr	PSP, r0
 800448e:	f3bf 8f6f 	isb	sy
 8004492:	f04f 0000 	mov.w	r0, #0
 8004496:	f380 8811 	msr	BASEPRI, r0
 800449a:	4770      	bx	lr
 800449c:	f3af 8000 	nop.w

080044a0 <pxCurrentTCBConst2>:
 80044a0:	200007bc 	.word	0x200007bc
 80044a4:	bf00      	nop
 80044a6:	bf00      	nop

080044a8 <prvPortStartFirstTask>:
 80044a8:	4808      	ldr	r0, [pc, #32]	@ (80044cc <prvPortStartFirstTask+0x24>)
 80044aa:	6800      	ldr	r0, [r0, #0]
 80044ac:	6800      	ldr	r0, [r0, #0]
 80044ae:	f380 8808 	msr	MSP, r0
 80044b2:	f04f 0000 	mov.w	r0, #0
 80044b6:	f380 8814 	msr	CONTROL, r0
 80044ba:	b662      	cpsie	i
 80044bc:	b661      	cpsie	f
 80044be:	f3bf 8f4f 	dsb	sy
 80044c2:	f3bf 8f6f 	isb	sy
 80044c6:	df00      	svc	0
 80044c8:	bf00      	nop
 80044ca:	bf00      	nop
 80044cc:	e000ed08 	.word	0xe000ed08

080044d0 <xPortStartScheduler>:
 80044d0:	b580      	push	{r7, lr}
 80044d2:	b086      	sub	sp, #24
 80044d4:	af00      	add	r7, sp, #0
 80044d6:	4b47      	ldr	r3, [pc, #284]	@ (80045f4 <xPortStartScheduler+0x124>)
 80044d8:	681b      	ldr	r3, [r3, #0]
 80044da:	4a47      	ldr	r2, [pc, #284]	@ (80045f8 <xPortStartScheduler+0x128>)
 80044dc:	4293      	cmp	r3, r2
 80044de:	d10b      	bne.n	80044f8 <xPortStartScheduler+0x28>
 80044e0:	f04f 0350 	mov.w	r3, #80	@ 0x50
 80044e4:	f383 8811 	msr	BASEPRI, r3
 80044e8:	f3bf 8f6f 	isb	sy
 80044ec:	f3bf 8f4f 	dsb	sy
 80044f0:	613b      	str	r3, [r7, #16]
 80044f2:	bf00      	nop
 80044f4:	bf00      	nop
 80044f6:	e7fd      	b.n	80044f4 <xPortStartScheduler+0x24>
 80044f8:	4b3e      	ldr	r3, [pc, #248]	@ (80045f4 <xPortStartScheduler+0x124>)
 80044fa:	681b      	ldr	r3, [r3, #0]
 80044fc:	4a3f      	ldr	r2, [pc, #252]	@ (80045fc <xPortStartScheduler+0x12c>)
 80044fe:	4293      	cmp	r3, r2
 8004500:	d10b      	bne.n	800451a <xPortStartScheduler+0x4a>
 8004502:	f04f 0350 	mov.w	r3, #80	@ 0x50
 8004506:	f383 8811 	msr	BASEPRI, r3
 800450a:	f3bf 8f6f 	isb	sy
 800450e:	f3bf 8f4f 	dsb	sy
 8004512:	60fb      	str	r3, [r7, #12]
 8004514:	bf00      	nop
 8004516:	bf00      	nop
 8004518:	e7fd      	b.n	8004516 <xPortStartScheduler+0x46>
 800451a:	4b39      	ldr	r3, [pc, #228]	@ (8004600 <xPortStartScheduler+0x130>)
 800451c:	617b      	str	r3, [r7, #20]
 800451e:	697b      	ldr	r3, [r7, #20]
 8004520:	781b      	ldrb	r3, [r3, #0]
 8004522:	b2db      	uxtb	r3, r3
 8004524:	607b      	str	r3, [r7, #4]
 8004526:	697b      	ldr	r3, [r7, #20]
 8004528:	22ff      	movs	r2, #255	@ 0xff
 800452a:	701a      	strb	r2, [r3, #0]
 800452c:	697b      	ldr	r3, [r7, #20]
 800452e:	781b      	ldrb	r3, [r3, #0]
 8004530:	b2db      	uxtb	r3, r3
 8004532:	70fb      	strb	r3, [r7, #3]
 8004534:	78fb      	ldrb	r3, [r7, #3]
 8004536:	b2db      	uxtb	r3, r3
 8004538:	f003 0350 	and.w	r3, r3, #80	@ 0x50
 800453c:	b2da      	uxtb	r2, r3
 800453e:	4b31      	ldr	r3, [pc, #196]	@ (8004604 <xPortStartScheduler+0x134>)
 8004540:	701a      	strb	r2, [r3, #0]
 8004542:	4b31      	ldr	r3, [pc, #196]	@ (8004608 <xPortStartScheduler+0x138>)
 8004544:	2207      	movs	r2, #7
 8004546:	601a      	str	r2, [r3, #0]
 8004548:	e009      	b.n	800455e <xPortStartScheduler+0x8e>
 800454a:	4b2f      	ldr	r3, [pc, #188]	@ (8004608 <xPortStartScheduler+0x138>)
 800454c:	681b      	ldr	r3, [r3, #0]
 800454e:	3b01      	subs	r3, #1
 8004550:	4a2d      	ldr	r2, [pc, #180]	@ (8004608 <xPortStartScheduler+0x138>)
 8004552:	6013      	str	r3, [r2, #0]
 8004554:	78fb      	ldrb	r3, [r7, #3]
 8004556:	b2db      	uxtb	r3, r3
 8004558:	005b      	lsls	r3, r3, #1
 800455a:	b2db      	uxtb	r3, r3
 800455c:	70fb      	strb	r3, [r7, #3]
 800455e:	78fb      	ldrb	r3, [r7, #3]
 8004560:	b2db      	uxtb	r3, r3
 8004562:	f003 0380 	and.w	r3, r3, #128	@ 0x80
 8004566:	2b80      	cmp	r3, #128	@ 0x80
 8004568:	d0ef      	beq.n	800454a <xPortStartScheduler+0x7a>
 800456a:	4b27      	ldr	r3, [pc, #156]	@ (8004608 <xPortStartScheduler+0x138>)
 800456c:	681b      	ldr	r3, [r3, #0]
 800456e:	f1c3 0307 	rsb	r3, r3, #7
 8004572:	2b04      	cmp	r3, #4
 8004574:	d00b      	beq.n	800458e <xPortStartScheduler+0xbe>
 8004576:	f04f 0350 	mov.w	r3, #80	@ 0x50
 800457a:	f383 8811 	msr	BASEPRI, r3
 800457e:	f3bf 8f6f 	isb	sy
 8004582:	f3bf 8f4f 	dsb	sy
 8004586:	60bb      	str	r3, [r7, #8]
 8004588:	bf00      	nop
 800458a:	bf00      	nop
 800458c:	e7fd      	b.n	800458a <xPortStartScheduler+0xba>
 800458e:	4b1e      	ldr	r3, [pc, #120]	@ (8004608 <xPortStartScheduler+0x138>)
 8004590:	681b      	ldr	r3, [r3, #0]
 8004592:	021b      	lsls	r3, r3, #8
 8004594:	4a1c      	ldr	r2, [pc, #112]	@ (8004608 <xPortStartScheduler+0x138>)
 8004596:	6013      	str	r3, [r2, #0]
 8004598:	4b1b      	ldr	r3, [pc, #108]	@ (8004608 <xPortStartScheduler+0x138>)
 800459a:	681b      	ldr	r3, [r3, #0]
 800459c:	f403 63e0 	and.w	r3, r3, #1792	@ 0x700
 80045a0:	4a19      	ldr	r2, [pc, #100]	@ (8004608 <xPortStartScheduler+0x138>)
 80045a2:	6013      	str	r3, [r2, #0]
 80045a4:	687b      	ldr	r3, [r7, #4]
 80045a6:	b2da      	uxtb	r2, r3
 80045a8:	697b      	ldr	r3, [r7, #20]
 80045aa:	701a      	strb	r2, [r3, #0]
 80045ac:	4b17      	ldr	r3, [pc, #92]	@ (800460c <xPortStartScheduler+0x13c>)
 80045ae:	681b      	ldr	r3, [r3, #0]
 80045b0:	4a16      	ldr	r2, [pc, #88]	@ (800460c <xPortStartScheduler+0x13c>)
 80045b2:	f443 0370 	orr.w	r3, r3, #15728640	@ 0xf00000
 80045b6:	6013      	str	r3, [r2, #0]
 80045b8:	4b14      	ldr	r3, [pc, #80]	@ (800460c <xPortStartScheduler+0x13c>)
 80045ba:	681b      	ldr	r3, [r3, #0]
 80045bc:	4a13      	ldr	r2, [pc, #76]	@ (800460c <xPortStartScheduler+0x13c>)
 80045be:	f043 4370 	orr.w	r3, r3, #4026531840	@ 0xf0000000
 80045c2:	6013      	str	r3, [r2, #0]
 80045c4:	f000 f8da 	bl	800477c <vPortSetupTimerInterrupt>
 80045c8:	4b11      	ldr	r3, [pc, #68]	@ (8004610 <xPortStartScheduler+0x140>)
 80045ca:	2200      	movs	r2, #0
 80045cc:	601a      	str	r2, [r3, #0]
 80045ce:	f000 f8f9 	bl	80047c4 <vPortEnableVFP>
 80045d2:	4b10      	ldr	r3, [pc, #64]	@ (8004614 <xPortStartScheduler+0x144>)
 80045d4:	681b      	ldr	r3, [r3, #0]
 80045d6:	4a0f      	ldr	r2, [pc, #60]	@ (8004614 <xPortStartScheduler+0x144>)
 80045d8:	f043 4340 	orr.w	r3, r3, #3221225472	@ 0xc0000000
 80045dc:	6013      	str	r3, [r2, #0]
 80045de:	f7ff ff63 	bl	80044a8 <prvPortStartFirstTask>
 80045e2:	f7ff f83d 	bl	8003660 <vTaskSwitchContext>
 80045e6:	f7ff ff1b 	bl	8004420 <prvTaskExitError>
 80045ea:	2300      	movs	r3, #0
 80045ec:	4618      	mov	r0, r3
 80045ee:	3718      	adds	r7, #24
 80045f0:	46bd      	mov	sp, r7
 80045f2:	bd80      	pop	{r7, pc}
 80045f4:	e000ed00 	.word	0xe000ed00
 80045f8:	410fc271 	.word	0x410fc271
 80045fc:	410fc270 	.word	0x410fc270
 8004600:	e000e400 	.word	0xe000e400
 8004604:	20000de8 	.word	0x20000de8
 8004608:	20000dec 	.word	0x20000dec
 800460c:	e000ed20 	.word	0xe000ed20
 8004610:	2000000c 	.word	0x2000000c
 8004614:	e000ef34 	.word	0xe000ef34

08004618 <vPortEnterCritical>:
 8004618:	b480      	push	{r7}
 800461a:	b083      	sub	sp, #12
 800461c:	af00      	add	r7, sp, #0
 800461e:	f04f 0350 	mov.w	r3, #80	@ 0x50
 8004622:	f383 8811 	msr	BASEPRI, r3
 8004626:	f3bf 8f6f 	isb	sy
 800462a:	f3bf 8f4f 	dsb	sy
 800462e:	607b      	str	r3, [r7, #4]
 8004630:	bf00      	nop
 8004632:	4b10      	ldr	r3, [pc, #64]	@ (8004674 <vPortEnterCritical+0x5c>)
 8004634:	681b      	ldr	r3, [r3, #0]
 8004636:	3301      	adds	r3, #1
 8004638:	4a0e      	ldr	r2, [pc, #56]	@ (8004674 <vPortEnterCritical+0x5c>)
 800463a:	6013      	str	r3, [r2, #0]
 800463c:	4b0d      	ldr	r3, [pc, #52]	@ (8004674 <vPortEnterCritical+0x5c>)
 800463e:	681b      	ldr	r3, [r3, #0]
 8004640:	2b01      	cmp	r3, #1
 8004642:	d110      	bne.n	8004666 <vPortEnterCritical+0x4e>
 8004644:	4b0c      	ldr	r3, [pc, #48]	@ (8004678 <vPortEnterCritical+0x60>)
 8004646:	681b      	ldr	r3, [r3, #0]
 8004648:	b2db      	uxtb	r3, r3
 800464a:	2b00      	cmp	r3, #0
 800464c:	d00b      	beq.n	8004666 <vPortEnterCritical+0x4e>
 800464e:	f04f 0350 	mov.w	r3, #80	@ 0x50
 8004652:	f383 8811 	msr	BASEPRI, r3
 8004656:	f3bf 8f6f 	isb	sy
 800465a:	f3bf 8f4f 	dsb	sy
 800465e:	603b      	str	r3, [r7, #0]
 8004660:	bf00      	nop
 8004662:	bf00      	nop
 8004664:	e7fd      	b.n	8004662 <vPortEnterCritical+0x4a>
 8004666:	bf00      	nop
 8004668:	370c      	adds	r7, #12
 800466a:	46bd      	mov	sp, r7
 800466c:	f85d 7b04 	ldr.w	r7, [sp], #4
 8004670:	4770      	bx	lr
 8004672:	bf00      	nop
 8004674:	2000000c 	.word	0x2000000c
 8004678:	e000ed04 	.word	0xe000ed04

0800467c <vPortExitCritical>:
 800467c:	b480      	push	{r7}
 800467e:	b083      	sub	sp, #12
 8004680:	af00      	add	r7, sp, #0
 8004682:	4b12      	ldr	r3, [pc, #72]	@ (80046cc <vPortExitCritical+0x50>)
 8004684:	681b      	ldr	r3, [r3, #0]
 8004686:	2b00      	cmp	r3, #0
 8004688:	d10b      	bne.n	80046a2 <vPortExitCritical+0x26>
 800468a:	f04f 0350 	mov.w	r3, #80	@ 0x50
 800468e:	f383 8811 	msr	BASEPRI, r3
 8004692:	f3bf 8f6f 	isb	sy
 8004696:	f3bf 8f4f 	dsb	sy
 800469a:	607b      	str	r3, [r7, #4]
 800469c:	bf00      	nop
 800469e:	bf00      	nop
 80046a0:	e7fd      	b.n	800469e <vPortExitCritical+0x22>
 80046a2:	4b0a      	ldr	r3, [pc, #40]	@ (80046cc <vPortExitCritical+0x50>)
 80046a4:	681b      	ldr	r3, [r3, #0]
 80046a6:	3b01      	subs	r3, #1
 80046a8:	4a08      	ldr	r2, [pc, #32]	@ (80046cc <vPortExitCritical+0x50>)
 80046aa:	6013      	str	r3, [r2, #0]
 80046ac:	4b07      	ldr	r3, [pc, #28]	@ (80046cc <vPortExitCritical+0x50>)
 80046ae:	681b      	ldr	r3, [r3, #0]
 80046b0:	2b00      	cmp	r3, #0
 80046b2:	d105      	bne.n	80046c0 <vPortExitCritical+0x44>
 80046b4:	2300      	movs	r3, #0
 80046b6:	603b      	str	r3, [r7, #0]
 80046b8:	683b      	ldr	r3, [r7, #0]
 80046ba:	f383 8811 	msr	BASEPRI, r3
 80046be:	bf00      	nop
 80046c0:	bf00      	nop
 80046c2:	370c      	adds	r7, #12
 80046c4:	46bd      	mov	sp, r7
 80046c6:	f85d 7b04 	ldr.w	r7, [sp], #4
 80046ca:	4770      	bx	lr
 80046cc:	2000000c 	.word	0x2000000c

080046d0 <PendSV_Handler>:
 80046d0:	f3ef 8009 	mrs	r0, PSP
 80046d4:	f3bf 8f6f 	isb	sy
 80046d8:	4b15      	ldr	r3, [pc, #84]	@ (8004730 <pxCurrentTCBConst>)
 80046da:	681a      	ldr	r2, [r3, #0]
 80046dc:	f01e 0f10 	tst.w	lr, #16
 80046e0:	bf08      	it	eq
 80046e2:	ed20 8a10 	vstmdbeq	r0!, {s16-s31}
 80046e6:	e920 4ff0 	stmdb	r0!, {r4, r5, r6, r7, r8, r9, sl, fp, lr}
 80046ea:	6010      	str	r0, [r2, #0]
 80046ec:	e92d 0009 	stmdb	sp!, {r0, r3}
 80046f0:	f04f 0050 	mov.w	r0, #80	@ 0x50
 80046f4:	f380 8811 	msr	BASEPRI, r0
 80046f8:	f3bf 8f4f 	dsb	sy
 80046fc:	f3bf 8f6f 	isb	sy
 8004700:	f7fe ffae 	bl	8003660 <vTaskSwitchContext>
 8004704:	f04f 0000 	mov.w	r0, #0
 8004708:	f380 8811 	msr	BASEPRI, r0
 800470c:	bc09      	pop	{r0, r3}
 800470e:	6819      	ldr	r1, [r3, #0]
 8004710:	6808      	ldr	r0, [r1, #0]
 8004712:	e8b0 4ff0 	ldmia.w	r0!, {r4, r5, r6, r7, r8, r9, sl, fp, lr}
 8004716:	f01e 0f10 	tst.w	lr, #16
 800471a:	bf08      	it	eq
 800471c:	ecb0 8a10 	vldmiaeq	r0!, {s16-s31}
 8004720:	f380 8809 	msr	PSP, r0
 8004724:	f3bf 8f6f 	isb	sy
 8004728:	4770      	bx	lr
 800472a:	bf00      	nop
 800472c:	f3af 8000 	nop.w

08004730 <pxCurrentTCBConst>:
 8004730:	200007bc 	.word	0x200007bc
 8004734:	bf00      	nop
 8004736:	bf00      	nop

08004738 <xPortSysTickHandler>:
 8004738:	b580      	push	{r7, lr}
 800473a:	b082      	sub	sp, #8
 800473c:	af00      	add	r7, sp, #0
 800473e:	f04f 0350 	mov.w	r3, #80	@ 0x50
 8004742:	f383 8811 	msr	BASEPRI, r3
 8004746:	f3bf 8f6f 	isb	sy
 800474a:	f3bf 8f4f 	dsb	sy
 800474e:	607b      	str	r3, [r7, #4]
 8004750:	bf00      	nop
 8004752:	f7fe fecb 	bl	80034ec <xTaskIncrementTick>
 8004756:	4603      	mov	r3, r0
 8004758:	2b00      	cmp	r3, #0
 800475a:	d003      	beq.n	8004764 <xPortSysTickHandler+0x2c>
 800475c:	4b06      	ldr	r3, [pc, #24]	@ (8004778 <xPortSysTickHandler+0x40>)
 800475e:	f04f 5280 	mov.w	r2, #268435456	@ 0x10000000
 8004762:	601a      	str	r2, [r3, #0]
 8004764:	2300      	movs	r3, #0
 8004766:	603b      	str	r3, [r7, #0]
 8004768:	683b      	ldr	r3, [r7, #0]
 800476a:	f383 8811 	msr	BASEPRI, r3
 800476e:	bf00      	nop
 8004770:	bf00      	nop
 8004772:	3708      	adds	r7, #8
 8004774:	46bd      	mov	sp, r7
 8004776:	bd80      	pop	{r7, pc}
 8004778:	e000ed04 	.word	0xe000ed04

0800477c <vPortSetupTimerInterrupt>:
 800477c:	b480      	push	{r7}
 800477e:	af00      	add	r7, sp, #0
 8004780:	4b0b      	ldr	r3, [pc, #44]	@ (80047b0 <vPortSetupTimerInterrupt+0x34>)
 8004782:	2200      	movs	r2, #0
 8004784:	601a      	str	r2, [r3, #0]
 8004786:	4b0b      	ldr	r3, [pc, #44]	@ (80047b4 <vPortSetupTimerInterrupt+0x38>)
 8004788:	2200      	movs	r2, #0
 800478a:	601a      	str	r2, [r3, #0]
 800478c:	4b0a      	ldr	r3, [pc, #40]	@ (80047b8 <vPortSetupTimerInterrupt+0x3c>)
 800478e:	681b      	ldr	r3, [r3, #0]
 8004790:	4a0a      	ldr	r2, [pc, #40]	@ (80047bc <vPortSetupTimerInterrupt+0x40>)
 8004792:	fba2 2303 	umull	r2, r3, r2, r3
 8004796:	099b      	lsrs	r3, r3, #6
 8004798:	4a09      	ldr	r2, [pc, #36]	@ (80047c0 <vPortSetupTimerInterrupt+0x44>)
 800479a:	3b01      	subs	r3, #1
 800479c:	6013      	str	r3, [r2, #0]
 800479e:	4b04      	ldr	r3, [pc, #16]	@ (80047b0 <vPortSetupTimerInterrupt+0x34>)
 80047a0:	2207      	movs	r2, #7
 80047a2:	601a      	str	r2, [r3, #0]
 80047a4:	bf00      	nop
 80047a6:	46bd      	mov	sp, r7
 80047a8:	f85d 7b04 	ldr.w	r7, [sp], #4
 80047ac:	4770      	bx	lr
 80047ae:	bf00      	nop
 80047b0:	e000e010 	.word	0xe000e010
 80047b4:	e000e018 	.word	0xe000e018
 80047b8:	20000000 	.word	0x20000000
 80047bc:	10624dd3 	.word	0x10624dd3
 80047c0:	e000e014 	.word	0xe000e014

080047c4 <vPortEnableVFP>:
 80047c4:	f8df 000c 	ldr.w	r0, [pc, #12]	@ 80047d4 <vPortEnableVFP+0x10>
 80047c8:	6801      	ldr	r1, [r0, #0]
 80047ca:	f441 0170 	orr.w	r1, r1, #15728640	@ 0xf00000
 80047ce:	6001      	str	r1, [r0, #0]
 80047d0:	4770      	bx	lr
 80047d2:	bf00      	nop
 80047d4:	e000ed88 	.word	0xe000ed88

080047d8 <vPortValidateInterruptPriority>:
 80047d8:	b480      	push	{r7}
 80047da:	b085      	sub	sp, #20
 80047dc:	af00      	add	r7, sp, #0
 80047de:	f3ef 8305 	mrs	r3, IPSR
 80047e2:	60fb      	str	r3, [r7, #12]
 80047e4:	68fb      	ldr	r3, [r7, #12]
 80047e6:	2b0f      	cmp	r3, #15
 80047e8:	d915      	bls.n	8004816 <vPortValidateInterruptPriority+0x3e>
 80047ea:	4a18      	ldr	r2, [pc, #96]	@ (800484c <vPortValidateInterruptPriority+0x74>)
 80047ec:	68fb      	ldr	r3, [r7, #12]
 80047ee:	4413      	add	r3, r2
 80047f0:	781b      	ldrb	r3, [r3, #0]
 80047f2:	72fb      	strb	r3, [r7, #11]
 80047f4:	4b16      	ldr	r3, [pc, #88]	@ (8004850 <vPortValidateInterruptPriority+0x78>)
 80047f6:	781b      	ldrb	r3, [r3, #0]
 80047f8:	7afa      	ldrb	r2, [r7, #11]
 80047fa:	429a      	cmp	r2, r3
 80047fc:	d20b      	bcs.n	8004816 <vPortValidateInterruptPriority+0x3e>
 80047fe:	f04f 0350 	mov.w	r3, #80	@ 0x50
 8004802:	f383 8811 	msr	BASEPRI, r3
 8004806:	f3bf 8f6f 	isb	sy
 800480a:	f3bf 8f4f 	dsb	sy
 800480e:	607b      	str	r3, [r7, #4]
 8004810:	bf00      	nop
 8004812:	bf00      	nop
 8004814:	e7fd      	b.n	8004812 <vPortValidateInterruptPriority+0x3a>
 8004816:	4b0f      	ldr	r3, [pc, #60]	@ (8004854 <vPortValidateInterruptPriority+0x7c>)
 8004818:	681b      	ldr	r3, [r3, #0]
 800481a:	f403 62e0 	and.w	r2, r3, #1792	@ 0x700
 800481e:	4b0e      	ldr	r3, [pc, #56]	@ (8004858 <vPortValidateInterruptPriority+0x80>)
 8004820:	681b      	ldr	r3, [r3, #0]
 8004822:	429a      	cmp	r2, r3
 8004824:	d90b      	bls.n	800483e <vPortValidateInterruptPriority+0x66>
 8004826:	f04f 0350 	mov.w	r3, #80	@ 0x50
 800482a:	f383 8811 	msr	BASEPRI, r3
 800482e:	f3bf 8f6f 	isb	sy
 8004832:	f3bf 8f4f 	dsb	sy
 8004836:	603b      	str	r3, [r7, #0]
 8004838:	bf00      	nop
 800483a:	bf00      	nop
 800483c:	e7fd      	b.n	800483a <vPortValidateInterruptPriority+0x62>
 800483e:	bf00      	nop
 8004840:	3714      	adds	r7, #20
 8004842:	46bd      	mov	sp, r7
 8004844:	f85d 7b04 	ldr.w	r7, [sp], #4
 8004848:	4770      	bx	lr
 800484a:	bf00      	nop
 800484c:	e000e3f0 	.word	0xe000e3f0
 8004850:	20000de8 	.word	0x20000de8
 8004854:	e000ed0c 	.word	0xe000ed0c
 8004858:	20000dec 	.word	0x20000dec

0800485c <pvPortMalloc>:
 800485c:	b580      	push	{r7, lr}
 800485e:	b08a      	sub	sp, #40	@ 0x28
 8004860:	af00      	add	r7, sp, #0
 8004862:	6078      	str	r0, [r7, #4]
 8004864:	2300      	movs	r3, #0
 8004866:	61fb      	str	r3, [r7, #28]
 8004868:	f7fe fd84 	bl	8003374 <vTaskSuspendAll>
 800486c:	4b5c      	ldr	r3, [pc, #368]	@ (80049e0 <pvPortMalloc+0x184>)
 800486e:	681b      	ldr	r3, [r3, #0]
 8004870:	2b00      	cmp	r3, #0
 8004872:	d101      	bne.n	8004878 <pvPortMalloc+0x1c>
 8004874:	f000 f924 	bl	8004ac0 <prvHeapInit>
 8004878:	4b5a      	ldr	r3, [pc, #360]	@ (80049e4 <pvPortMalloc+0x188>)
 800487a:	681a      	ldr	r2, [r3, #0]
 800487c:	687b      	ldr	r3, [r7, #4]
 800487e:	4013      	ands	r3, r2
 8004880:	2b00      	cmp	r3, #0
 8004882:	f040 8095 	bne.w	80049b0 <pvPortMalloc+0x154>
 8004886:	687b      	ldr	r3, [r7, #4]
 8004888:	2b00      	cmp	r3, #0
 800488a:	d01e      	beq.n	80048ca <pvPortMalloc+0x6e>
 800488c:	2208      	movs	r2, #8
 800488e:	687b      	ldr	r3, [r7, #4]
 8004890:	4413      	add	r3, r2
 8004892:	607b      	str	r3, [r7, #4]
 8004894:	687b      	ldr	r3, [r7, #4]
 8004896:	f003 0307 	and.w	r3, r3, #7
 800489a:	2b00      	cmp	r3, #0
 800489c:	d015      	beq.n	80048ca <pvPortMalloc+0x6e>
 800489e:	687b      	ldr	r3, [r7, #4]
 80048a0:	f023 0307 	bic.w	r3, r3, #7
 80048a4:	3308      	adds	r3, #8
 80048a6:	607b      	str	r3, [r7, #4]
 80048a8:	687b      	ldr	r3, [r7, #4]
 80048aa:	f003 0307 	and.w	r3, r3, #7
 80048ae:	2b00      	cmp	r3, #0
 80048b0:	d00b      	beq.n	80048ca <pvPortMalloc+0x6e>
 80048b2:	f04f 0350 	mov.w	r3, #80	@ 0x50
 80048b6:	f383 8811 	msr	BASEPRI, r3
 80048ba:	f3bf 8f6f 	isb	sy
 80048be:	f3bf 8f4f 	dsb	sy
 80048c2:	617b      	str	r3, [r7, #20]
 80048c4:	bf00      	nop
 80048c6:	bf00      	nop
 80048c8:	e7fd      	b.n	80048c6 <pvPortMalloc+0x6a>
 80048ca:	687b      	ldr	r3, [r7, #4]
 80048cc:	2b00      	cmp	r3, #0
 80048ce:	d06f      	beq.n	80049b0 <pvPortMalloc+0x154>
 80048d0:	4b45      	ldr	r3, [pc, #276]	@ (80049e8 <pvPortMalloc+0x18c>)
 80048d2:	681b      	ldr	r3, [r3, #0]
 80048d4:	687a      	ldr	r2, [r7, #4]
 80048d6:	429a      	cmp	r2, r3
 80048d8:	d86a      	bhi.n	80049b0 <pvPortMalloc+0x154>
 80048da:	4b44      	ldr	r3, [pc, #272]	@ (80049ec <pvPortMalloc+0x190>)
 80048dc:	623b      	str	r3, [r7, #32]
 80048de:	4b43      	ldr	r3, [pc, #268]	@ (80049ec <pvPortMalloc+0x190>)
 80048e0:	681b      	ldr	r3, [r3, #0]
 80048e2:	627b      	str	r3, [r7, #36]	@ 0x24
 80048e4:	e004      	b.n	80048f0 <pvPortMalloc+0x94>
 80048e6:	6a7b      	ldr	r3, [r7, #36]	@ 0x24
 80048e8:	623b      	str	r3, [r7, #32]
 80048ea:	6a7b      	ldr	r3, [r7, #36]	@ 0x24
 80048ec:	681b      	ldr	r3, [r3, #0]
 80048ee:	627b      	str	r3, [r7, #36]	@ 0x24
 80048f0:	6a7b      	ldr	r3, [r7, #36]	@ 0x24
 80048f2:	685b      	ldr	r3, [r3, #4]
 80048f4:	687a      	ldr	r2, [r7, #4]
 80048f6:	429a      	cmp	r2, r3
 80048f8:	d903      	bls.n	8004902 <pvPortMalloc+0xa6>
 80048fa:	6a7b      	ldr	r3, [r7, #36]	@ 0x24
 80048fc:	681b      	ldr	r3, [r3, #0]
 80048fe:	2b00      	cmp	r3, #0
 8004900:	d1f1      	bne.n	80048e6 <pvPortMalloc+0x8a>
 8004902:	4b37      	ldr	r3, [pc, #220]	@ (80049e0 <pvPortMalloc+0x184>)
 8004904:	681b      	ldr	r3, [r3, #0]
 8004906:	6a7a      	ldr	r2, [r7, #36]	@ 0x24
 8004908:	429a      	cmp	r2, r3
 800490a:	d051      	beq.n	80049b0 <pvPortMalloc+0x154>
 800490c:	6a3b      	ldr	r3, [r7, #32]
 800490e:	681b      	ldr	r3, [r3, #0]
 8004910:	2208      	movs	r2, #8
 8004912:	4413      	add	r3, r2
 8004914:	61fb      	str	r3, [r7, #28]
 8004916:	6a7b      	ldr	r3, [r7, #36]	@ 0x24
 8004918:	681a      	ldr	r2, [r3, #0]
 800491a:	6a3b      	ldr	r3, [r7, #32]
 800491c:	601a      	str	r2, [r3, #0]
 800491e:	6a7b      	ldr	r3, [r7, #36]	@ 0x24
 8004920:	685a      	ldr	r2, [r3, #4]
 8004922:	687b      	ldr	r3, [r7, #4]
 8004924:	1ad2      	subs	r2, r2, r3
 8004926:	2308      	movs	r3, #8
 8004928:	005b      	lsls	r3, r3, #1
 800492a:	429a      	cmp	r2, r3
 800492c:	d920      	bls.n	8004970 <pvPortMalloc+0x114>
 800492e:	6a7a      	ldr	r2, [r7, #36]	@ 0x24
 8004930:	687b      	ldr	r3, [r7, #4]
 8004932:	4413      	add	r3, r2
 8004934:	61bb      	str	r3, [r7, #24]
 8004936:	69bb      	ldr	r3, [r7, #24]
 8004938:	f003 0307 	and.w	r3, r3, #7
 800493c:	2b00      	cmp	r3, #0
 800493e:	d00b      	beq.n	8004958 <pvPortMalloc+0xfc>
 8004940:	f04f 0350 	mov.w	r3, #80	@ 0x50
 8004944:	f383 8811 	msr	BASEPRI, r3
 8004948:	f3bf 8f6f 	isb	sy
 800494c:	f3bf 8f4f 	dsb	sy
 8004950:	613b      	str	r3, [r7, #16]
 8004952:	bf00      	nop
 8004954:	bf00      	nop
 8004956:	e7fd      	b.n	8004954 <pvPortMalloc+0xf8>
 8004958:	6a7b      	ldr	r3, [r7, #36]	@ 0x24
 800495a:	685a      	ldr	r2, [r3, #4]
 800495c:	687b      	ldr	r3, [r7, #4]
 800495e:	1ad2      	subs	r2, r2, r3
 8004960:	69bb      	ldr	r3, [r7, #24]
 8004962:	605a      	str	r2, [r3, #4]
 8004964:	6a7b      	ldr	r3, [r7, #36]	@ 0x24
 8004966:	687a      	ldr	r2, [r7, #4]
 8004968:	605a      	str	r2, [r3, #4]
 800496a:	69b8      	ldr	r0, [r7, #24]
 800496c:	f000 f90a 	bl	8004b84 <prvInsertBlockIntoFreeList>
 8004970:	4b1d      	ldr	r3, [pc, #116]	@ (80049e8 <pvPortMalloc+0x18c>)
 8004972:	681a      	ldr	r2, [r3, #0]
 8004974:	6a7b      	ldr	r3, [r7, #36]	@ 0x24
 8004976:	685b      	ldr	r3, [r3, #4]
 8004978:	1ad3      	subs	r3, r2, r3
 800497a:	4a1b      	ldr	r2, [pc, #108]	@ (80049e8 <pvPortMalloc+0x18c>)
 800497c:	6013      	str	r3, [r2, #0]
 800497e:	4b1a      	ldr	r3, [pc, #104]	@ (80049e8 <pvPortMalloc+0x18c>)
 8004980:	681a      	ldr	r2, [r3, #0]
 8004982:	4b1b      	ldr	r3, [pc, #108]	@ (80049f0 <pvPortMalloc+0x194>)
 8004984:	681b      	ldr	r3, [r3, #0]
 8004986:	429a      	cmp	r2, r3
 8004988:	d203      	bcs.n	8004992 <pvPortMalloc+0x136>
 800498a:	4b17      	ldr	r3, [pc, #92]	@ (80049e8 <pvPortMalloc+0x18c>)
 800498c:	681b      	ldr	r3, [r3, #0]
 800498e:	4a18      	ldr	r2, [pc, #96]	@ (80049f0 <pvPortMalloc+0x194>)
 8004990:	6013      	str	r3, [r2, #0]
 8004992:	6a7b      	ldr	r3, [r7, #36]	@ 0x24
 8004994:	685a      	ldr	r2, [r3, #4]
 8004996:	4b13      	ldr	r3, [pc, #76]	@ (80049e4 <pvPortMalloc+0x188>)
 8004998:	681b      	ldr	r3, [r3, #0]
 800499a:	431a      	orrs	r2, r3
 800499c:	6a7b      	ldr	r3, [r7, #36]	@ 0x24
 800499e:	605a      	str	r2, [r3, #4]
 80049a0:	6a7b      	ldr	r3, [r7, #36]	@ 0x24
 80049a2:	2200      	movs	r2, #0
 80049a4:	601a      	str	r2, [r3, #0]
 80049a6:	4b13      	ldr	r3, [pc, #76]	@ (80049f4 <pvPortMalloc+0x198>)
 80049a8:	681b      	ldr	r3, [r3, #0]
 80049aa:	3301      	adds	r3, #1
 80049ac:	4a11      	ldr	r2, [pc, #68]	@ (80049f4 <pvPortMalloc+0x198>)
 80049ae:	6013      	str	r3, [r2, #0]
 80049b0:	f7fe fcee 	bl	8003390 <xTaskResumeAll>
 80049b4:	69fb      	ldr	r3, [r7, #28]
 80049b6:	f003 0307 	and.w	r3, r3, #7
 80049ba:	2b00      	cmp	r3, #0
 80049bc:	d00b      	beq.n	80049d6 <pvPortMalloc+0x17a>
 80049be:	f04f 0350 	mov.w	r3, #80	@ 0x50
 80049c2:	f383 8811 	msr	BASEPRI, r3
 80049c6:	f3bf 8f6f 	isb	sy
 80049ca:	f3bf 8f4f 	dsb	sy
 80049ce:	60fb      	str	r3, [r7, #12]
 80049d0:	bf00      	nop
 80049d2:	bf00      	nop
 80049d4:	e7fd      	b.n	80049d2 <pvPortMalloc+0x176>
 80049d6:	69fb      	ldr	r3, [r7, #28]
 80049d8:	4618      	mov	r0, r3
 80049da:	3728      	adds	r7, #40	@ 0x28
 80049dc:	46bd      	mov	sp, r7
 80049de:	bd80      	pop	{r7, pc}
 80049e0:	200049f8 	.word	0x200049f8
 80049e4:	20004a0c 	.word	0x20004a0c
 80049e8:	200049fc 	.word	0x200049fc
 80049ec:	200049f0 	.word	0x200049f0
 80049f0:	20004a00 	.word	0x20004a00
 80049f4:	20004a04 	.word	0x20004a04

080049f8 <vPortFree>:
 80049f8:	b580      	push	{r7, lr}
 80049fa:	b086      	sub	sp, #24
 80049fc:	af00      	add	r7, sp, #0
 80049fe:	6078      	str	r0, [r7, #4]
 8004a00:	687b      	ldr	r3, [r7, #4]
 8004a02:	617b      	str	r3, [r7, #20]
 8004a04:	687b      	ldr	r3, [r7, #4]
 8004a06:	2b00      	cmp	r3, #0
 8004a08:	d04f      	beq.n	8004aaa <vPortFree+0xb2>
 8004a0a:	2308      	movs	r3, #8
 8004a0c:	425b      	negs	r3, r3
 8004a0e:	697a      	ldr	r2, [r7, #20]
 8004a10:	4413      	add	r3, r2
 8004a12:	617b      	str	r3, [r7, #20]
 8004a14:	697b      	ldr	r3, [r7, #20]
 8004a16:	613b      	str	r3, [r7, #16]
 8004a18:	693b      	ldr	r3, [r7, #16]
 8004a1a:	685a      	ldr	r2, [r3, #4]
 8004a1c:	4b25      	ldr	r3, [pc, #148]	@ (8004ab4 <vPortFree+0xbc>)
 8004a1e:	681b      	ldr	r3, [r3, #0]
 8004a20:	4013      	ands	r3, r2
 8004a22:	2b00      	cmp	r3, #0
 8004a24:	d10b      	bne.n	8004a3e <vPortFree+0x46>
 8004a26:	f04f 0350 	mov.w	r3, #80	@ 0x50
 8004a2a:	f383 8811 	msr	BASEPRI, r3
 8004a2e:	f3bf 8f6f 	isb	sy
 8004a32:	f3bf 8f4f 	dsb	sy
 8004a36:	60fb      	str	r3, [r7, #12]
 8004a38:	bf00      	nop
 8004a3a:	bf00      	nop
 8004a3c:	e7fd      	b.n	8004a3a <vPortFree+0x42>
 8004a3e:	693b      	ldr	r3, [r7, #16]
 8004a40:	681b      	ldr	r3, [r3, #0]
 8004a42:	2b00      	cmp	r3, #0
 8004a44:	d00b      	beq.n	8004a5e <vPortFree+0x66>
 8004a46:	f04f 0350 	mov.w	r3, #80	@ 0x50
 8004a4a:	f383 8811 	msr	BASEPRI, r3
 8004a4e:	f3bf 8f6f 	isb	sy
 8004a52:	f3bf 8f4f 	dsb	sy
 8004a56:	60bb      	str	r3, [r7, #8]
 8004a58:	bf00      	nop
 8004a5a:	bf00      	nop
 8004a5c:	e7fd      	b.n	8004a5a <vPortFree+0x62>
 8004a5e:	693b      	ldr	r3, [r7, #16]
 8004a60:	685a      	ldr	r2, [r3, #4]
 8004a62:	4b14      	ldr	r3, [pc, #80]	@ (8004ab4 <vPortFree+0xbc>)
 8004a64:	681b      	ldr	r3, [r3, #0]
 8004a66:	4013      	ands	r3, r2
 8004a68:	2b00      	cmp	r3, #0
 8004a6a:	d01e      	beq.n	8004aaa <vPortFree+0xb2>
 8004a6c:	693b      	ldr	r3, [r7, #16]
 8004a6e:	681b      	ldr	r3, [r3, #0]
 8004a70:	2b00      	cmp	r3, #0
 8004a72:	d11a      	bne.n	8004aaa <vPortFree+0xb2>
 8004a74:	693b      	ldr	r3, [r7, #16]
 8004a76:	685a      	ldr	r2, [r3, #4]
 8004a78:	4b0e      	ldr	r3, [pc, #56]	@ (8004ab4 <vPortFree+0xbc>)
 8004a7a:	681b      	ldr	r3, [r3, #0]
 8004a7c:	43db      	mvns	r3, r3
 8004a7e:	401a      	ands	r2, r3
 8004a80:	693b      	ldr	r3, [r7, #16]
 8004a82:	605a      	str	r2, [r3, #4]
 8004a84:	f7fe fc76 	bl	8003374 <vTaskSuspendAll>
 8004a88:	693b      	ldr	r3, [r7, #16]
 8004a8a:	685a      	ldr	r2, [r3, #4]
 8004a8c:	4b0a      	ldr	r3, [pc, #40]	@ (8004ab8 <vPortFree+0xc0>)
 8004a8e:	681b      	ldr	r3, [r3, #0]
 8004a90:	4413      	add	r3, r2
 8004a92:	4a09      	ldr	r2, [pc, #36]	@ (8004ab8 <vPortFree+0xc0>)
 8004a94:	6013      	str	r3, [r2, #0]
 8004a96:	6938      	ldr	r0, [r7, #16]
 8004a98:	f000 f874 	bl	8004b84 <prvInsertBlockIntoFreeList>
 8004a9c:	4b07      	ldr	r3, [pc, #28]	@ (8004abc <vPortFree+0xc4>)
 8004a9e:	681b      	ldr	r3, [r3, #0]
 8004aa0:	3301      	adds	r3, #1
 8004aa2:	4a06      	ldr	r2, [pc, #24]	@ (8004abc <vPortFree+0xc4>)
 8004aa4:	6013      	str	r3, [r2, #0]
 8004aa6:	f7fe fc73 	bl	8003390 <xTaskResumeAll>
 8004aaa:	bf00      	nop
 8004aac:	3718      	adds	r7, #24
 8004aae:	46bd      	mov	sp, r7
 8004ab0:	bd80      	pop	{r7, pc}
 8004ab2:	bf00      	nop
 8004ab4:	20004a0c 	.word	0x20004a0c
 8004ab8:	200049fc 	.word	0x200049fc
 8004abc:	20004a08 	.word	0x20004a08

08004ac0 <prvHeapInit>:
 8004ac0:	b480      	push	{r7}
 8004ac2:	b085      	sub	sp, #20
 8004ac4:	af00      	add	r7, sp, #0
 8004ac6:	f44f 5370 	mov.w	r3, #15360	@ 0x3c00
 8004aca:	60bb      	str	r3, [r7, #8]
 8004acc:	4b27      	ldr	r3, [pc, #156]	@ (8004b6c <prvHeapInit+0xac>)
 8004ace:	60fb      	str	r3, [r7, #12]
 8004ad0:	68fb      	ldr	r3, [r7, #12]
 8004ad2:	f003 0307 	and.w	r3, r3, #7
 8004ad6:	2b00      	cmp	r3, #0
 8004ad8:	d00c      	beq.n	8004af4 <prvHeapInit+0x34>
 8004ada:	68fb      	ldr	r3, [r7, #12]
 8004adc:	3307      	adds	r3, #7
 8004ade:	60fb      	str	r3, [r7, #12]
 8004ae0:	68fb      	ldr	r3, [r7, #12]
 8004ae2:	f023 0307 	bic.w	r3, r3, #7
 8004ae6:	60fb      	str	r3, [r7, #12]
 8004ae8:	68ba      	ldr	r2, [r7, #8]
 8004aea:	68fb      	ldr	r3, [r7, #12]
 8004aec:	1ad3      	subs	r3, r2, r3
 8004aee:	4a1f      	ldr	r2, [pc, #124]	@ (8004b6c <prvHeapInit+0xac>)
 8004af0:	4413      	add	r3, r2
 8004af2:	60bb      	str	r3, [r7, #8]
 8004af4:	68fb      	ldr	r3, [r7, #12]
 8004af6:	607b      	str	r3, [r7, #4]
 8004af8:	4a1d      	ldr	r2, [pc, #116]	@ (8004b70 <prvHeapInit+0xb0>)
 8004afa:	687b      	ldr	r3, [r7, #4]
 8004afc:	6013      	str	r3, [r2, #0]
 8004afe:	4b1c      	ldr	r3, [pc, #112]	@ (8004b70 <prvHeapInit+0xb0>)
 8004b00:	2200      	movs	r2, #0
 8004b02:	605a      	str	r2, [r3, #4]
 8004b04:	687b      	ldr	r3, [r7, #4]
 8004b06:	68ba      	ldr	r2, [r7, #8]
 8004b08:	4413      	add	r3, r2
 8004b0a:	60fb      	str	r3, [r7, #12]
 8004b0c:	2208      	movs	r2, #8
 8004b0e:	68fb      	ldr	r3, [r7, #12]
 8004b10:	1a9b      	subs	r3, r3, r2
 8004b12:	60fb      	str	r3, [r7, #12]
 8004b14:	68fb      	ldr	r3, [r7, #12]
 8004b16:	f023 0307 	bic.w	r3, r3, #7
 8004b1a:	60fb      	str	r3, [r7, #12]
 8004b1c:	68fb      	ldr	r3, [r7, #12]
 8004b1e:	4a15      	ldr	r2, [pc, #84]	@ (8004b74 <prvHeapInit+0xb4>)
 8004b20:	6013      	str	r3, [r2, #0]
 8004b22:	4b14      	ldr	r3, [pc, #80]	@ (8004b74 <prvHeapInit+0xb4>)
 8004b24:	681b      	ldr	r3, [r3, #0]
 8004b26:	2200      	movs	r2, #0
 8004b28:	605a      	str	r2, [r3, #4]
 8004b2a:	4b12      	ldr	r3, [pc, #72]	@ (8004b74 <prvHeapInit+0xb4>)
 8004b2c:	681b      	ldr	r3, [r3, #0]
 8004b2e:	2200      	movs	r2, #0
 8004b30:	601a      	str	r2, [r3, #0]
 8004b32:	687b      	ldr	r3, [r7, #4]
 8004b34:	603b      	str	r3, [r7, #0]
 8004b36:	683b      	ldr	r3, [r7, #0]
 8004b38:	68fa      	ldr	r2, [r7, #12]
 8004b3a:	1ad2      	subs	r2, r2, r3
 8004b3c:	683b      	ldr	r3, [r7, #0]
 8004b3e:	605a      	str	r2, [r3, #4]
 8004b40:	4b0c      	ldr	r3, [pc, #48]	@ (8004b74 <prvHeapInit+0xb4>)
 8004b42:	681a      	ldr	r2, [r3, #0]
 8004b44:	683b      	ldr	r3, [r7, #0]
 8004b46:	601a      	str	r2, [r3, #0]
 8004b48:	683b      	ldr	r3, [r7, #0]
 8004b4a:	685b      	ldr	r3, [r3, #4]
 8004b4c:	4a0a      	ldr	r2, [pc, #40]	@ (8004b78 <prvHeapInit+0xb8>)
 8004b4e:	6013      	str	r3, [r2, #0]
 8004b50:	683b      	ldr	r3, [r7, #0]
 8004b52:	685b      	ldr	r3, [r3, #4]
 8004b54:	4a09      	ldr	r2, [pc, #36]	@ (8004b7c <prvHeapInit+0xbc>)
 8004b56:	6013      	str	r3, [r2, #0]
 8004b58:	4b09      	ldr	r3, [pc, #36]	@ (8004b80 <prvHeapInit+0xc0>)
 8004b5a:	f04f 4200 	mov.w	r2, #2147483648	@ 0x80000000
 8004b5e:	601a      	str	r2, [r3, #0]
 8004b60:	bf00      	nop
 8004b62:	3714      	adds	r7, #20
 8004b64:	46bd      	mov	sp, r7
 8004b66:	f85d 7b04 	ldr.w	r7, [sp], #4
 8004b6a:	4770      	bx	lr
 8004b6c:	20000df0 	.word	0x20000df0
 8004b70:	200049f0 	.word	0x200049f0
 8004b74:	200049f8 	.word	0x200049f8
 8004b78:	20004a00 	.word	0x20004a00
 8004b7c:	200049fc 	.word	0x200049fc
 8004b80:	20004a0c 	.word	0x20004a0c

08004b84 <prvInsertBlockIntoFreeList>:
 8004b84:	b480      	push	{r7}
 8004b86:	b085      	sub	sp, #20
 8004b88:	af00      	add	r7, sp, #0
 8004b8a:	6078      	str	r0, [r7, #4]
 8004b8c:	4b28      	ldr	r3, [pc, #160]	@ (8004c30 <prvInsertBlockIntoFreeList+0xac>)
 8004b8e:	60fb      	str	r3, [r7, #12]
 8004b90:	e002      	b.n	8004b98 <prvInsertBlockIntoFreeList+0x14>
 8004b92:	68fb      	ldr	r3, [r7, #12]
 8004b94:	681b      	ldr	r3, [r3, #0]
 8004b96:	60fb      	str	r3, [r7, #12]
 8004b98:	68fb      	ldr	r3, [r7, #12]
 8004b9a:	681b      	ldr	r3, [r3, #0]
 8004b9c:	687a      	ldr	r2, [r7, #4]
 8004b9e:	429a      	cmp	r2, r3
 8004ba0:	d8f7      	bhi.n	8004b92 <prvInsertBlockIntoFreeList+0xe>
 8004ba2:	68fb      	ldr	r3, [r7, #12]
 8004ba4:	60bb      	str	r3, [r7, #8]
 8004ba6:	68fb      	ldr	r3, [r7, #12]
 8004ba8:	685b      	ldr	r3, [r3, #4]
 8004baa:	68ba      	ldr	r2, [r7, #8]
 8004bac:	4413      	add	r3, r2
 8004bae:	687a      	ldr	r2, [r7, #4]
 8004bb0:	429a      	cmp	r2, r3
 8004bb2:	d108      	bne.n	8004bc6 <prvInsertBlockIntoFreeList+0x42>
 8004bb4:	68fb      	ldr	r3, [r7, #12]
 8004bb6:	685a      	ldr	r2, [r3, #4]
 8004bb8:	687b      	ldr	r3, [r7, #4]
 8004bba:	685b      	ldr	r3, [r3, #4]
 8004bbc:	441a      	add	r2, r3
 8004bbe:	68fb      	ldr	r3, [r7, #12]
 8004bc0:	605a      	str	r2, [r3, #4]
 8004bc2:	68fb      	ldr	r3, [r7, #12]
 8004bc4:	607b      	str	r3, [r7, #4]
 8004bc6:	687b      	ldr	r3, [r7, #4]
 8004bc8:	60bb      	str	r3, [r7, #8]
 8004bca:	687b      	ldr	r3, [r7, #4]
 8004bcc:	685b      	ldr	r3, [r3, #4]
 8004bce:	68ba      	ldr	r2, [r7, #8]
 8004bd0:	441a      	add	r2, r3
 8004bd2:	68fb      	ldr	r3, [r7, #12]
 8004bd4:	681b      	ldr	r3, [r3, #0]
 8004bd6:	429a      	cmp	r2, r3
 8004bd8:	d118      	bne.n	8004c0c <prvInsertBlockIntoFreeList+0x88>
 8004bda:	68fb      	ldr	r3, [r7, #12]
 8004bdc:	681a      	ldr	r2, [r3, #0]
 8004bde:	4b15      	ldr	r3, [pc, #84]	@ (8004c34 <prvInsertBlockIntoFreeList+0xb0>)
 8004be0:	681b      	ldr	r3, [r3, #0]
 8004be2:	429a      	cmp	r2, r3
 8004be4:	d00d      	beq.n	8004c02 <prvInsertBlockIntoFreeList+0x7e>
 8004be6:	687b      	ldr	r3, [r7, #4]
 8004be8:	685a      	ldr	r2, [r3, #4]
 8004bea:	68fb      	ldr	r3, [r7, #12]
 8004bec:	681b      	ldr	r3, [r3, #0]
 8004bee:	685b      	ldr	r3, [r3, #4]
 8004bf0:	441a      	add	r2, r3
 8004bf2:	687b      	ldr	r3, [r7, #4]
 8004bf4:	605a      	str	r2, [r3, #4]
 8004bf6:	68fb      	ldr	r3, [r7, #12]
 8004bf8:	681b      	ldr	r3, [r3, #0]
 8004bfa:	681a      	ldr	r2, [r3, #0]
 8004bfc:	687b      	ldr	r3, [r7, #4]
 8004bfe:	601a      	str	r2, [r3, #0]
 8004c00:	e008      	b.n	8004c14 <prvInsertBlockIntoFreeList+0x90>
 8004c02:	4b0c      	ldr	r3, [pc, #48]	@ (8004c34 <prvInsertBlockIntoFreeList+0xb0>)
 8004c04:	681a      	ldr	r2, [r3, #0]
 8004c06:	687b      	ldr	r3, [r7, #4]
 8004c08:	601a      	str	r2, [r3, #0]
 8004c0a:	e003      	b.n	8004c14 <prvInsertBlockIntoFreeList+0x90>
 8004c0c:	68fb      	ldr	r3, [r7, #12]
 8004c0e:	681a      	ldr	r2, [r3, #0]
 8004c10:	687b      	ldr	r3, [r7, #4]
 8004c12:	601a      	str	r2, [r3, #0]
 8004c14:	68fa      	ldr	r2, [r7, #12]
 8004c16:	687b      	ldr	r3, [r7, #4]
 8004c18:	429a      	cmp	r2, r3
 8004c1a:	d002      	beq.n	8004c22 <prvInsertBlockIntoFreeList+0x9e>
 8004c1c:	68fb      	ldr	r3, [r7, #12]
 8004c1e:	687a      	ldr	r2, [r7, #4]
 8004c20:	601a      	str	r2, [r3, #0]
 8004c22:	bf00      	nop
 8004c24:	3714      	adds	r7, #20
 8004c26:	46bd      	mov	sp, r7
 8004c28:	f85d 7b04 	ldr.w	r7, [sp], #4
 8004c2c:	4770      	bx	lr
 8004c2e:	bf00      	nop
 8004c30:	200049f0 	.word	0x200049f0
 8004c34:	200049f8 	.word	0x200049f8

08004c38 <memset>:
 8004c38:	4402      	add	r2, r0
 8004c3a:	4603      	mov	r3, r0
 8004c3c:	4293      	cmp	r3, r2
 8004c3e:	d100      	bne.n	8004c42 <memset+0xa>
 8004c40:	4770      	bx	lr
 8004c42:	f803 1b01 	strb.w	r1, [r3], #1
 8004c46:	e7f9      	b.n	8004c3c <memset+0x4>

08004c48 <__libc_init_array>:
 8004c48:	b570      	push	{r4, r5, r6, lr}
 8004c4a:	4d0d      	ldr	r5, [pc, #52]	@ (8004c80 <__libc_init_array+0x38>)
 8004c4c:	4c0d      	ldr	r4, [pc, #52]	@ (8004c84 <__libc_init_array+0x3c>)
 8004c4e:	1b64      	subs	r4, r4, r5
 8004c50:	10a4      	asrs	r4, r4, #2
 8004c52:	2600      	movs	r6, #0
 8004c54:	42a6      	cmp	r6, r4
 8004c56:	d109      	bne.n	8004c6c <__libc_init_array+0x24>
 8004c58:	4d0b      	ldr	r5, [pc, #44]	@ (8004c88 <__libc_init_array+0x40>)
 8004c5a:	4c0c      	ldr	r4, [pc, #48]	@ (8004c8c <__libc_init_array+0x44>)
 8004c5c:	f000 f826 	bl	8004cac <_init>
 8004c60:	1b64      	subs	r4, r4, r5
 8004c62:	10a4      	asrs	r4, r4, #2
 8004c64:	2600      	movs	r6, #0
 8004c66:	42a6      	cmp	r6, r4
 8004c68:	d105      	bne.n	8004c76 <__libc_init_array+0x2e>
 8004c6a:	bd70      	pop	{r4, r5, r6, pc}
 8004c6c:	f855 3b04 	ldr.w	r3, [r5], #4
 8004c70:	4798      	blx	r3
 8004c72:	3601      	adds	r6, #1
 8004c74:	e7ee      	b.n	8004c54 <__libc_init_array+0xc>
 8004c76:	f855 3b04 	ldr.w	r3, [r5], #4
 8004c7a:	4798      	blx	r3
 8004c7c:	3601      	adds	r6, #1
 8004c7e:	e7f2      	b.n	8004c66 <__libc_init_array+0x1e>
 8004c80:	08004d08 	.word	0x08004d08
 8004c84:	08004d08 	.word	0x08004d08
 8004c88:	08004d08 	.word	0x08004d08
 8004c8c:	08004d0c 	.word	0x08004d0c

08004c90 <memcpy>:
 8004c90:	440a      	add	r2, r1
 8004c92:	4291      	cmp	r1, r2
 8004c94:	f100 33ff 	add.w	r3, r0, #4294967295
 8004c98:	d100      	bne.n	8004c9c <memcpy+0xc>
 8004c9a:	4770      	bx	lr
 8004c9c:	b510      	push	{r4, lr}
 8004c9e:	f811 4b01 	ldrb.w	r4, [r1], #1
 8004ca2:	f803 4f01 	strb.w	r4, [r3, #1]!
 8004ca6:	4291      	cmp	r1, r2
 8004ca8:	d1f9      	bne.n	8004c9e <memcpy+0xe>
 8004caa:	bd10      	pop	{r4, pc}

08004cac <_init>:
 8004cac:	b5f8      	push	{r3, r4, r5, r6, r7, lr}
 8004cae:	bf00      	nop
 8004cb0:	bcf8      	pop	{r3, r4, r5, r6, r7}
 8004cb2:	bc08      	pop	{r3}
 8004cb4:	469e      	mov	lr, r3
 8004cb6:	4770      	bx	lr

08004cb8 <_fini>:
 8004cb8:	b5f8      	push	{r3, r4, r5, r6, r7, lr}
 8004cba:	bf00      	nop
 8004cbc:	bcf8      	pop	{r3, r4, r5, r6, r7}
 8004cbe:	bc08      	pop	{r3}
 8004cc0:	469e      	mov	lr, r3
 8004cc2:	4770      	bx	lr
